L251 LINKER/LOCATER V4.66.93.0                                                          06/13/2023  16:02:14  PAGE 1


L251 LINKER/LOCATER V4.66.93.0, INVOKED BY:
D:\KEILMDK\C251\BIN\L251.EXE .\obj\CalcDoseRate.obj, .\obj\CMD.obj, .\obj\flash.obj, .\obj\i2c.obj, .\obj\mcp4725.obj, .
>> \obj\Sensor.obj, .\obj\system.obj, .\obj\uart.obj, .\obj\main.obj TO .\obj\PileCore PRINT (.\obj\PileCore.map) CASE R
>> EMOVEUNUSED CLASSES (EDATA (0X0-0XFFF), HDATA (0X0-0XFFF))


CPU MODE:     251 SOURCE MODE
INTR FRAME:   2 BYTES SAVED ON INTERRUPT
MEMORY MODEL: XSMALL WITH FLOATING POINT ARITHMETIC


INPUT MODULES INCLUDED:
  .\obj\CalcDoseRate.obj (CalcDoseRate)
         COMMENT TYPE 0: C251 V5.60.0
  .\obj\CMD.obj (CMD)
         COMMENT TYPE 0: C251 V5.60.0
  .\obj\flash.obj (flash)
         COMMENT TYPE 0: C251 V5.60.0
  .\obj\i2c.obj (i2c)
         COMMENT TYPE 0: C251 V5.60.0
  .\obj\mcp4725.obj (mcp4725)
         COMMENT TYPE 0: C251 V5.60.0
  .\obj\Sensor.obj (Sensor)
         COMMENT TYPE 0: C251 V5.60.0
  .\obj\system.obj (system)
         COMMENT TYPE 0: C251 V5.60.0
  .\obj\uart.obj (uart)
         COMMENT TYPE 0: C251 V5.60.0
  .\obj\main.obj (main)
         COMMENT TYPE 0: C251 V5.60.0
  D:\KEILMDK\C251\LIB\C2SFPXS.LIB (?C?FPADD)
         COMMENT TYPE 0: A251 V4.69.6.0
  D:\KEILMDK\C251\LIB\C2SFPXS.LIB (?C?FPMUL)
         COMMENT TYPE 0: A251 V4.69.6.0
  D:\KEILMDK\C251\LIB\C2SFPXS.LIB (?C?FPDIV)
         COMMENT TYPE 0: A251 V4.69.6.0
  D:\KEILMDK\C251\LIB\C2SFPXS.LIB (?C?FPCMP)
         COMMENT TYPE 0: A251 V4.69.6.0
  D:\KEILMDK\C251\LIB\C2SFPXS.LIB (?C?FCAST)
         COMMENT TYPE 0: A251 V4.69.6.0
  D:\KEILMDK\C251\LIB\C2SFPXS.LIB (?C?CASTF)
         COMMENT TYPE 0: A251 V4.69.6.0
  D:\KEILMDK\C251\LIB\C2SFPXS.LIB (SPRINTF)
         COMMENT TYPE 0: A251 V4.69.6.0
  D:\KEILMDK\C251\LIB\C2SFPXS.LIB (EXP?_)
         COMMENT TYPE 0: A251 V4.69.6.0
  D:\KEILMDK\C251\LIB\C2SFPXS.LIB (SQRT?_)
         COMMENT TYPE 0: A251 V4.69.6.0
  D:\KEILMDK\C251\LIB\C2SFPXS.LIB (?C?FPGETOPN)
         COMMENT TYPE 0: A251 V4.69.6.0
  D:\KEILMDK\C251\LIB\C2SFPXS.LIB (?C?PRNFMT)
         COMMENT TYPE 0: A251 V4.69.6.0
  D:\KEILMDK\C251\LIB\C2SFPXS.LIB (?C?FPSERIES)
         COMMENT TYPE 0: A251 V4.69.6.0
  D:\KEILMDK\C251\LIB\C2SFPXS.LIB (?C?FPCONVERT)
         COMMENT TYPE 0: A251 V4.69.6.0
  D:\KEILMDK\C251\LIB\C2SFPXS.LIB (?C?FTNPWR)
         COMMENT TYPE 0: A251 V4.69.6.0
  D:\KEILMDK\C251\LIB\C2SXS.LIB (?C_START)
         COMMENT TYPE 0: A251 V4.69.6.0
  D:\KEILMDK\C251\LIB\C2SXS.LIB (?C?INITEDATA)
         COMMENT TYPE 0: A251 V4.69.6.0
  D:\KEILMDK\C251\LIB\C2SXS.LIB (?C?ULDIV)
         COMMENT TYPE 0: A251 V4.69.6.0
  D:\KEILMDK\C251\LIB\C2SXS.LIB (?C?BMOVENP)
         COMMENT TYPE 0: A251 V4.69.6.0
L251 LINKER/LOCATER V4.66.93.0                                                        06/13/2023  16:02:14  PAGE 2


  D:\KEILMDK\C251\LIB\C2SXS.LIB (ATOI)
         COMMENT TYPE 0: C251 V5.58.7
  D:\KEILMDK\C251\LIB\C2SXS.LIB (memcmp)
         COMMENT TYPE 0: C251 V5.58.7
  D:\KEILMDK\C251\LIB\C2SXS.LIB (memcpy)
         COMMENT TYPE 0: C251 V5.58.7
  D:\KEILMDK\C251\LIB\C2SXS.LIB (memset)
         COMMENT TYPE 0: C251 V5.58.7
  D:\KEILMDK\C251\LIB\C2SXS.LIB (?C?INITEDATA_END)
         COMMENT TYPE 0: A251 V4.69.6.0
  D:\KEILMDK\C251\LIB\C2SXS.LIB (ISDIGIT)
         COMMENT TYPE 0: C251 V5.58.7
  D:\KEILMDK\C251\LIB\C2SXS.LIB (ISSPACE)
         COMMENT TYPE 0: C251 V5.58.7


ACTIVE MEMORY CLASSES OF MODULE:  .\obj\PileCore (CalcDoseRate)

BASE        START       END         USED      MEMORY CLASS
==========================================================
000000H     000000H     000FFFH     00062DH   EDATA
000000H     000000H     000FFFH               HDATA
FF0000H     FF0000H     FFFFFFH     00278AH   CODE
000000H     FF0000H     FFFFFFH     00015EH   HCONST
000020H.0   000020H.0   00002FH.7   000000H.1 BIT
FF0000H     FF0000H     FFFFFFH     000004H   CONST
000000H     000000H     00007FH     000008H   DATA


MEMORY MAP OF MODULE:  .\obj\PileCore (CalcDoseRate)


START     STOP      LENGTH    ALIGN  RELOC    MEMORY CLASS   SEGMENT NAME
=========================================================================
000000H   000007H   000008H   ---    AT..     DATA           "REG BANK 0"
000008H   00001FH   000018H   BYTE   UNIT     EDATA          ?ED?ACK_CMD_W?CMD
000020H.0 000020H.0 000000H.1 BIT    UNIT     BIT            ?BI?UART
000020H.1 000020H   000000H.7 ---    ---      **GAP**
000021H   000140H   000120H   BYTE   UNIT     EDATA          ?ED?CALCDOSERATE
000141H   00020CH   0000CCH   BYTE   UNIT     EDATA          ?ED?UART
00020DH   0002B8H   0000ACH   BYTE   UNIT     EDATA          ?ED?MAIN
0002B9H   000326H   00006EH   BYTE   UNIT     EDATA          ?ED?CMD
000327H   000362H   00003CH   BYTE   UNIT     EDATA          ?ED?ACK_CMD_N?CMD
000363H   00039AH   000038H   BYTE   UNIT     EDATA          ?ED?ACK_CMD_J?CMD
00039BH   0003C2H   000028H   BYTE   UNIT     EDATA          _EDATA_GROUP_
0003C3H   0003DFH   00001DH   BYTE   UNIT     EDATA          ?ED?SENSOR
0003E0H   0003FBH   00001CH   BYTE   UNIT     EDATA          ?ED?ACK_CMD_B?CMD
0003FCH   000414H   000019H   BYTE   UNIT     EDATA          ?ED?ACK_CMD_V?CMD
000415H   00042CH   000018H   BYTE   UNIT     EDATA          ?ED?ACK_CMD_F?CMD
00042DH   000440H   000014H   BYTE   UNIT     EDATA          ?ED?SMOTHCPSCALCRATE?CALCDOSERATE
000441H   000454H   000014H   BYTE   UNIT     EDATA          ?ED?ACK_CMD_R?CMD
000455H   000468H   000014H   BYTE   UNIT     EDATA          ?ED?MCP4725_OUTVOL?MCP4725
000469H   00047AH   000012H   BYTE   UNIT     EDATA          ?ED?EEPROM_WRITE?FLASH
00047BH   000487H   00000DH   BYTE   UNIT     EDATA          ?ED?FLOATTOSMALL?CMD
000488H   000494H   00000DH   BYTE   UNIT     EDATA          ?ED?DWORDTOSMALL?CMD
000495H   0004A1H   00000DH   BYTE   UNIT     EDATA          ?ED?DATAPRO?CMD
0004A2H   0004AEH   00000DH   BYTE   UNIT     EDATA          ?ED?ACK_CMD_P?CMD
0004AFH   0004B8H   00000AH   BYTE   UNIT     EDATA          ?ED?CHECKSUM?CMD
0004B9H   0004C2H   00000AH   BYTE   UNIT     EDATA          ?ED?EEPROM_READ?FLASH
0004C3H   0004CAH   000008H   BYTE   UNIT     EDATA          ?ED?CPSTOUSV_H?CALCDOSERATE
0004CBH   0004D2H   000008H   BYTE   UNIT     EDATA          ?ED?SENDDATA?CMD
0004D3H   0004DAH   000008H   BYTE   UNIT     EDATA          ?ED?SETCS?CMD
0004DBH   0004E2H   000008H   BYTE   UNIT     EDATA          ?ED?CAPTURESENSORPLUSECOUNTER?SENSOR
0004E3H   0004EAH   000008H   BYTE   UNIT     EDATA          ?ED?SYSTEM
0004EBH   0004F1H   000007H   BYTE   UNIT     EDATA          ?ED?WORDTOSMALL?CMD
L251 LINKER/LOCATER V4.66.93.0                                                        06/13/2023  16:02:14  PAGE 3


0004F2H   0004F7H   000006H   BYTE   UNIT     EDATA          ?ED?GETHIS?CALCDOSERATE
0004F8H   0004FDH   000006H   BYTE   UNIT     EDATA          ?ED?CPSFILTER?CALCDOSERATE
0004FEH   000503H   000006H   BYTE   UNIT     EDATA          ?ED?UART_SEND?UART
000504H   000508H   000005H   BYTE   UNIT     EDATA          ?ED?PUSHCPS?CALCDOSERATE
000509H   00050DH   000005H   BYTE   UNIT     EDATA          ?ED?COUNTERPH?CALCDOSERATE
00050EH   000511H   000004H   BYTE   UNIT     EDATA          ?ED?ADDCOUNTER?CALCDOSERATE
000512H   000515H   000004H   BYTE   UNIT     EDATA          ?ED?GETPARA?CMD
000516H   000519H   000004H   BYTE   UNIT     EDATA          ?ED?READCS?CMD
00051AH   00051DH   000004H   BYTE   UNIT     EDATA          ?ED?EEPROM_SECTORERASE?FLASH
00051EH   000521H   000004H   BYTE   UNIT     EDATA          ?ED?CALCALARMSTATE?SENSOR
000522H   000525H   000004H   BYTE   UNIT     EDATA          ?ED?GETCOUNTER?SYSTEM
000526H   000529H   000004H   BYTE   UNIT     EDATA          ?ED?DELAY_MS?MAIN
00052AH   00052BH   000002H   BYTE   UNIT     EDATA          ?ED?RESVCPS?CALCDOSERATE
00052CH   00052DH   000002H   BYTE   UNIT     EDATA          ?ED?CHECKAPP?FLASH
00052EH   00052FH   000002H   BYTE   UNIT     EDATA          ?ED?TIMERTASK?MAIN
000530H   000530H   000001H   BYTE   UNIT     EDATA          ?ED?INITARR?CALCDOSERATE
000531H   000531H   000001H   BYTE   UNIT     EDATA          ?ED?ACK_CMD_H?CMD
000532H   000532H   000001H   BYTE   UNIT     EDATA          ?ED?I2C
000533H   000533H   000001H   BYTE   UNIT     EDATA          ?ED?GETSENSORTYPE?SENSOR
000534H   000534H   000001H   BYTE   UNIT     EDATA          ?ED?PUTCHAR?UART
000535H   000535H   000001H   BYTE   UNIT     EDATA          ?ED?DELAY_US?MAIN
000536H   000635H   000100H   BYTE   UNIT     EDATA          ?STACK
000636H   FEFFFFH   FEF9CAH   ---    ---      **GAP**
FF0000H   FF0002H   000003H   ---    OFFS..   CODE           ?CO?start251?4
FF0003H   FF000AH   000008H   BYTE   INSEG    CODE           ?PR?ADDCOUNTER?CALCDOSERATE
FF000BH   FF000DH   000003H   ---    OFFS..   CODE           ?PR?IV?1
FF000EH   FF0022H   000015H   BYTE   INSEG    CODE           ?PR?ALARMCONFIRM?CMD
FF0023H   FF0025H   000003H   ---    OFFS..   CODE           ?PR?IV?4
FF0026H   FF0095H   000070H   BYTE   INSEG    CODE           ?PR?ACK_CMD_J?CMD
FF0096H   FF0099H   000004H   BYTE   INSEG    CODE           ?PR?SENSORMEASUREBEGIN?SENSOR
FF009AH   FF009AH   000001H   ---    ---      **GAP**
FF009BH   FF009DH   000003H   ---    OFFS..   CODE           ?PR?IV?19
FF009EH   FF0B2AH   000A8DH   BYTE   UNIT     CODE           ?C?LIB_CODE
FF0B2BH   FF0EA5H   00037BH   BYTE   INSEG    CODE           ?PR?MCP4725_OUTVOL?MCP4725
FF0EA6H   FF1156H   0002B1H   BYTE   INSEG    CODE           ?PR?CALCALARMSTATE?SENSOR
FF1157H   FF13B4H   00025EH   BYTE   INSEG    CODE           ?PR?CPSFILTER?CALCDOSERATE
FF13B5H   FF15D2H   00021EH   BYTE   INSEG    CODE           ?PR?DATAPRO?CMD
FF15D3H   FF16E7H   000115H   BYTE   INSEG    CODE           ?PR?EEPROM_WRITE?FLASH
FF16E8H   FF17F8H   000111H   BYTE   INSEG    CODE           ?PR?COUNTERPH?CALCDOSERATE
FF17F9H   FF18EDH   0000F5H   BYTE   INSEG    CODE           ?PR?SENDDATA?CMD
FF18EEH   FF19C0H   0000D3H   BYTE   INSEG    CODE           ?PR?TIMERTASK?MAIN
FF19C1H   FF1A87H   0000C7H   BYTE   INSEG    CODE           ?PR?INITPARAM?MAIN
FF1A88H   FF1B2CH   0000A5H   BYTE   INSEG    CODE           ?PR?ACK_CMD_W?CMD
FF1B2DH   FF1BBBH   00008FH   BYTE   INSEG    CODE           ?PR?SMOTHCPSCALCRATE?CALCDOSERATE
FF1BBCH   FF1C4AH   00008FH   BYTE   INSEG    CODE           ?PR?PUSHCPS?CALCDOSERATE
FF1C4BH   FF1CD9H   00008FH   BYTE   INSEG    CODE           ?PR?CAPTURESENSORPLUSECOUNTER?SENSOR
FF1CDAH   FF1D60H   000087H   BYTE   INSEG    CODE           ?PR?ACK_CMD_N?CMD
FF1D61H   FF1DE1H   000081H   BYTE   INSEG    CODE           ?PR?ACK_CMD_V?CMD
FF1DE2H   FF1E60H   00007FH   BYTE   INSEG    CODE           ?PR?ATOI?_?ATOI
FF1E61H   FF1ED0H   000070H   BYTE   INSEG    CODE           ?PR?MAIN?MAIN
FF1ED1H   FF1F3CH   00006CH   BYTE   INSEG    CODE           ?PR?EEPROM_READ?FLASH
FF1F3DH   FF1FA2H   000066H   BYTE   INSEG    CODE           ?PR?ACK_CMD_B?CMD
FF1FA3H   FF2001H   00005FH   BYTE   INSEG    CODE           ?PR?FLOATTOSMALL?CMD
FF2002H   FF2060H   00005FH   BYTE   INSEG    CODE           ?PR?DWORDTOSMALL?CMD
FF2061H   FF20BEH   00005EH   BYTE   INSEG    CODE           ?PR?CPSTOUSV_H?CALCDOSERATE
FF20BFH   FF211AH   00005CH   BYTE   INSEG    CODE           ?PR?ACK_CMD_R?CMD
FF211BH   FF2174H   00005AH   BYTE   INSEG    CODE           ?PR?INITARR?CALCDOSERATE
FF2175H   FF21C3H   00004FH   BYTE   INSEG    CODE           ?PR?ACK_CMD_F?CMD
FF21C4H   FF220FH   00004CH   BYTE   INSEG    CODE           ?PR?CHECKSUM?CMD
FF2210H   FF225AH   00004BH   BYTE   INSEG    CODE           ?PR?UART1_ISR?UART
FF225BH   FF22A3H   000049H   BYTE   INSEG    CODE           ?PR?ACK_CMD_P?CMD
FF22A4H   FF22EAH   000047H   BYTE   INSEG    CODE           ?PR?DELAY_MS?MAIN
FF22EBH   FF2330H   000046H   BYTE   INSEG    CODE           ?PR?UART_SEND?UART
FF2331H   FF2375H   000045H   BYTE   INSEG    CODE           ?PR?CHECKAPP?FLASH
FF2376H   FF2388H   000013H   BYTE   UNIT     CODE           ?C_C51STARTUP
L251 LINKER/LOCATER V4.66.93.0                                                        06/13/2023  16:02:14  PAGE 4


FF2389H   FF23B1H   000029H   BYTE   UNIT     CODE           ?C_C51STARTUP?2
FF23B2H   FF23B4H   000003H   BYTE   UNIT     CODE           ?C_C51STARTUP?3
FF23B5H   FF23F0H   00003CH   BYTE   INSEG    CODE           ?PR?UART1_INIT?UART
FF23F1H   FF242BH   00003BH   BYTE   INSEG    CODE           ?PR?WRITEPARA?CMD
FF242CH   FF2465H   00003AH   BYTE   INSEG    CODE           ?PR?GETPARA?CMD
FF2466H   FF249EH   000039H   BYTE   INSEG    CODE           ?PR?IOINIT?MAIN
FF249FH   FF24D4H   000036H   BYTE   INSEG    CODE           ?PR?SETCS?CMD
FF24D5H   FF2506H   000032H   BYTE   INSEG    CODE           ?PR?SENSORINIT?SENSOR
FF2507H   FF2535H   00002FH   BYTE   INSEG    CODE           ?PR?MEMCMP?_?MEMCMP
FF2536H   FF2562H   00002DH   BYTE   INSEG    CODE           ?PR?EEPROM_SECTORERASE?FLASH
FF2563H   FF258AH   000028H   BYTE   INSEG    CODE           ?PR?SYSINIT?SYSTEM
FF258BH   FF25AFH   000025H   BYTE   INSEG    CODE           ?PR?MEMCPY?_?MEMCPY
FF25B0H   FF25D3H   000024H   BYTE   INSEG    CODE           ?PR?TIMER0_ISR?SYSTEM
FF25D4H   FF25F4H   000021H   BYTE   INSEG    CODE           ?PR?RS485HND?MAIN
FF25F5H   FF2612H   00001EH   BYTE   INSEG    CODE           ?PR?TIMER0_INIT?SYSTEM
FF2613H   FF262FH   00001DH   BYTE   INSEG    CODE           ?PR?CLEARCOUNTER?CALCDOSERATE
FF2630H   FF2649H   00001AH   BYTE   INSEG    CODE           ?PR?MEMSET?_?MEMSET
FF264AH   FF2662H   000019H   BYTE   INSEG    CODE           ?PR?ACK_CMD_H?CMD
FF2663H   FF267BH   000019H   BYTE   INSEG    CODE           ?PR?REFRESHPARAM?SENSOR
FF267CH   FF2694H   000019H   BYTE   INSEG    CODE           ?PR?DELAY_US?MAIN
FF2695H   FF26ACH   000018H   BYTE   INSEG    CODE           ?PR?READCS?CMD
FF26ADH   FF26C4H   000018H   BYTE   INSEG    CODE           ?PR?EEPROM_TRIG?FLASH
FF26C5H   FF26DBH   000017H   BYTE   INSEG    CODE           ?PR?ERROR?MAIN
FF26DCH   FF26F1H   000016H   BYTE   INSEG    CODE           ?PR?DISABLEEEPROM?FLASH
FF26F2H   FF2707H   000016H   BYTE   INSEG    CODE           ?PR?TIMER3_ISR?SYSTEM
FF2708H   FF271BH   000014H   BYTE   INSEG    CODE           ?PR?ISSPACE?_?ISSPACE
FF271CH   FF272EH   000013H   BYTE   INSEG    CODE           ?PR?GETCOUNTER?SYSTEM
FF272FH   FF2740H   000012H   BYTE   INSEG    CODE           ?PR?CLEARRS485BUF?UART
FF2741H   FF2750H   000010H   BYTE   INSEG    CODE           ?PR?ISDIGIT?_?ISDIGIT
FF2751H   FF275FH   00000FH   BYTE   INSEG    CODE           ?PR?TIMER3_INIT?SYSTEM
FF2760H   FF276CH   00000DH   BYTE   INSEG    CODE           ?PR?ACK_CMD_M?CMD
FF276DH   FF2776H   00000AH   BYTE   INSEG    CODE           ?PR?SAVEPARAM?CMD
FF2777H   FF2780H   00000AH   BYTE   INSEG    CODE           ?PR?ACK_CMD_C?CMD
FF2781H   FF278AH   00000AH   BYTE   INSEG    CODE           ?PR?ACK_CMD_T?CMD
FF278BH   FF278EH   000004H   BYTE   UNIT     CONST          ?CO?PRINTF
FF278FH   FF28CEH   000140H   BYTE   UNIT     HCONST         ?C_INITEDATA
FF28CFH   FF28DCH   00000EH   BYTE   UNIT     HCONST         ?HC?CMD
FF28DDH   FF28E7H   00000BH   BYTE   UNIT     HCONST         ?HC?MAIN
FF28E8H   FF28ECH   000005H   BYTE   UNIT     HCONST         ?HC?MCP4725

* * * * * * * * *   R E M O V E D     S E G M E N T S   * * * * * * * *
   *DEL*:           000143H   BYTE   INSEG    CODE           ?PR?GETHIS?CALCDOSERATE
   *DEL*:           000134H   BYTE   INSEG    CODE           ?PR?RESVCPS?CALCDOSERATE
   *DEL*:           000047H   BYTE   INSEG    CODE           ?PR?WORDTOSMALL?CMD
   *DEL*:           00001FH   BYTE   INSEG    CODE           ?PR?GETSENSORTYPE?SENSOR
   *DEL*:           000005H   BYTE   INSEG    CODE           ?PR?GET_LOW_SMOOTH_COUNTER?SENSOR
   *DEL*:           000005H   BYTE   INSEG    CODE           ?PR?GET_LOW_COUNTER?SENSOR
   *DEL*:           000017H   BYTE   INSEG    CODE           ?PR?TIMER1_INIT?SYSTEM
   *DEL*:           000011H   BYTE   INSEG    CODE           ?PR?PUTCHAR?UART



OVERLAY MAP OF MODULE:   .\obj\PileCore (CalcDoseRate)


FUNCTION/MODULE                       EDATA_GROUP
--> CALLED FUNCTION/MODULE            START  STOP
=================================================
Timer0_Isr/system                     ----- -----

*** NEW ROOT ************************

Timer3_Isr/system                     ----- -----

*** NEW ROOT ************************
L251 LINKER/LOCATER V4.66.93.0                                                        06/13/2023  16:02:14  PAGE 5



UART1_ISR/uart                        ----- -----

*** NEW ROOT ************************

?C_C51STARTUP                         ----- -----

*** NEW ROOT ************************

?C_C51STARTUP?3                       ----- -----
  +--> main/main

main/main                             ----- -----
  +--> SysInit/system
  +--> IoInit/main
  +--> checkApp/flash
  +--> Timer0_Init/system
  +--> Timer3_Init/system
  +--> SensorInit/Sensor
  +--> Uart1_Init/uart
  +--> ClearRs485Buf/uart
  +--> delay_ms/main
  +--> GetPara/CMD
  +--> memcpy?_/memcpy
  +--> MCP4725_OutVol/mcp4725
  +--> ClearCounter/CalcDoseRate
  +--> SensorMeasureBegin/Sensor
  +--> TimerTask/main
  +--> CaptureSensorPluseCounter/Sensor
  +--> Rs485Hnd/main

SysInit/system                        ----- -----

IoInit/main                           ----- -----

checkApp/flash                        ----- -----
  +--> EEPROM_read/flash
  +--> EEPROM_write/flash

EEPROM_read/flash                     ----- -----
  +--> EEPROM_Trig/flash
  +--> DisableEEPROM/flash

EEPROM_Trig/flash                     ----- -----

DisableEEPROM/flash                   ----- -----

EEPROM_write/flash                    ----- -----
  +--> EEPROM_Trig/flash
  +--> DisableEEPROM/flash

Timer0_Init/system                    ----- -----

Timer3_Init/system                    ----- -----

SensorInit/Sensor                     ----- -----
  +--> InitArr/CalcDoseRate
  +--> RefreshParam/Sensor
  +--> SensorMeasureBegin/Sensor

InitArr/CalcDoseRate                  ----- -----
  +--> memset?_/memset

memset?_/memset                       ----- -----

L251 LINKER/LOCATER V4.66.93.0                                                        06/13/2023  16:02:14  PAGE 6


RefreshParam/Sensor                   ----- -----

SensorMeasureBegin/Sensor             ----- -----
  +--> GetCounter/system

GetCounter/system                     ----- -----

Uart1_Init/uart                       ----- -----

ClearRs485Buf/uart                    ----- -----
  +--> memset?_/memset

delay_ms/main                         ----- -----

GetPara/CMD                           ----- -----
  +--> EEPROM_read/flash
  +--> CheckSum/CMD
  +--> InitParam/main

CheckSum/CMD                          ----- -----

InitParam/main                        ----- -----
  +--> memset?_/memset
  +--> SPRINTF/SPRINTF
  +--> WritePara/CMD

SPRINTF/SPRINTF                       039BH 03C2H
  +--> OUT/SPRINTF

OUT/SPRINTF                           ----- -----
  +--> PUTCH/SPRINTF

PUTCH/SPRINTF                         ----- -----

WritePara/CMD                         ----- -----
  +--> EEPROM_SectorErase/flash
  +--> CheckSum/CMD
  +--> EEPROM_write/flash
  +--> Error/main

EEPROM_SectorErase/flash              ----- -----
  +--> EEPROM_Trig/flash
  +--> DisableEEPROM/flash

Error/main                            ----- -----
  +--> delay_ms/main

memcpy?_/memcpy                       ----- -----

MCP4725_OutVol/mcp4725                ----- -----
  +--> memcpy?_/memcpy
  +--> atoi?_/ATOI
  +--> ?C?ULIDIV/?C?ULDIV
  +--> delay_us/main

atoi?_/ATOI                           ----- -----
  +--> isspace?_/ISSPACE
  +--> isdigit?_/ISDIGIT

isspace?_/ISSPACE                     ----- -----

isdigit?_/ISDIGIT                     ----- -----

?C?ULIDIV/?C?ULDIV                    ----- -----

L251 LINKER/LOCATER V4.66.93.0                                                        06/13/2023  16:02:14  PAGE 7


delay_us/main                         ----- -----

ClearCounter/CalcDoseRate             ----- -----
  +--> memset?_/memset

TimerTask/main                        ----- -----

CaptureSensorPluseCounter/Sensor      ----- -----
  +--> GetCounter/system
  +--> SmothCpsCalcRate/CalcDoseRate
  +--> ClearCounter/CalcDoseRate
  +--> CalcAlarmState/Sensor

SmothCpsCalcRate/CalcDoseRate         ----- -----
  +--> CpsFilter/CalcDoseRate
  +--> CounterPH/CalcDoseRate
  +--> CpsToUsv_h/CalcDoseRate

CpsFilter/CalcDoseRate                ----- -----
  +--> ClearCounter/CalcDoseRate
  +--> AddCounter/CalcDoseRate

AddCounter/CalcDoseRate               ----- -----
  +--> PushCps/CalcDoseRate

PushCps/CalcDoseRate                  ----- -----

CounterPH/CalcDoseRate                ----- -----

CpsToUsv_h/CalcDoseRate               ----- -----

CalcAlarmState/Sensor                 ----- -----

Rs485Hnd/main                         ----- -----
  +--> DataPro/CMD
  +--> ClearRs485Buf/uart

DataPro/CMD                           ----- -----
  +--> memcpy?_/memcpy
  +--> SPRINTF/SPRINTF
  +--> memcmp?_/memcmp
  +--> ACK_CMD_C/CMD
  +--> ACK_CMD_V/CMD
  +--> ACK_CMD_P/CMD
  +--> ACK_CMD_H/CMD
  +--> ACK_CMD_B/CMD
  +--> ACK_CMD_W/CMD
  +--> ACK_CMD_F/CMD
  +--> ACK_CMD_R/CMD
  +--> ACK_CMD_T/CMD
  +--> ACK_CMD_M/CMD
  +--> ACK_CMD_J/CMD
  +--> ACK_CMD_N/CMD
  +--> ReadCS/CMD
  +--> SetCS/CMD
  +--> AlarmConfirm/CMD

memcmp?_/memcmp                       ----- -----

ACK_CMD_C/CMD                         ----- -----
  +--> SendData/CMD

SendData/CMD                          ----- -----
  +--> memcpy?_/memcpy
  +--> SPRINTF/SPRINTF
L251 LINKER/LOCATER V4.66.93.0                                                        06/13/2023  16:02:14  PAGE 8


  +--> uart_send/uart

uart_send/uart                        ----- -----

ACK_CMD_V/CMD                         ----- -----
  +--> FloatToSmall/CMD
  +--> DwordToSmall/CMD
  +--> SendData/CMD

FloatToSmall/CMD                      ----- -----
  +--> memcpy?_/memcpy

DwordToSmall/CMD                      ----- -----
  +--> memcpy?_/memcpy

ACK_CMD_P/CMD                         ----- -----
  +--> SPRINTF/SPRINTF
  +--> SendData/CMD

ACK_CMD_H/CMD                         ----- -----
  +--> SendData/CMD
  +--> SaveParam/CMD

SaveParam/CMD                         ----- -----
  +--> WritePara/CMD

ACK_CMD_B/CMD                         ----- -----
  +--> memcpy?_/memcpy
  +--> FloatToSmall/CMD
  +--> SendData/CMD
  +--> SaveParam/CMD

ACK_CMD_W/CMD                         ----- -----
  +--> memcpy?_/memcpy
  +--> FloatToSmall/CMD
  +--> RefreshParam/Sensor
  +--> MCP4725_OutVol/mcp4725
  +--> SendData/CMD
  +--> SaveParam/CMD

ACK_CMD_F/CMD                         ----- -----
  +--> FloatToSmall/CMD
  +--> SendData/CMD

ACK_CMD_R/CMD                         ----- -----
  +--> FloatToSmall/CMD
  +--> memcpy?_/memcpy
  +--> SendData/CMD

ACK_CMD_T/CMD                         ----- -----
  +--> SendData/CMD

ACK_CMD_M/CMD                         ----- -----
  +--> SendData/CMD

ACK_CMD_J/CMD                         ----- -----
  +--> FloatToSmall/CMD
  +--> SendData/CMD

ACK_CMD_N/CMD                         ----- -----
  +--> memcpy?_/memcpy
  +--> FloatToSmall/CMD
  +--> SendData/CMD
  +--> SaveParam/CMD

L251 LINKER/LOCATER V4.66.93.0                                                        06/13/2023  16:02:14  PAGE 9


ReadCS/CMD                            ----- -----
  +--> FloatToSmall/CMD
  +--> SendData/CMD

SetCS/CMD                             ----- -----
  +--> FloatToSmall/CMD
  +--> memcpy?_/memcpy
  +--> SendData/CMD
  +--> SaveParam/CMD

AlarmConfirm/CMD                      ----- -----
  +--> SendData/CMD

*** NEW ROOT ************************

?C_C51STARTUP?2                       ----- -----



PUBLIC SYMBOLS OF MODULE:  .\obj\PileCore (CalcDoseRate)


      VALUE       CLASS    TYPE      PUBLIC SYMBOL NAME
      =================================================
      00FF0B08H   CODE     ---       ?C?BMOVENP
      00FF0B06H   CODE     ---       ?C?BMOVENP8
      00FF0300H   CODE     NEAR LAB  ?C?CASTF
      000000FFH   NUMBER   ---       ?C?CODESEG
      00FF02CDH   CODE     NEAR LAB  ?C?FCASTC
      00FF02C8H   CODE     NEAR LAB  ?C?FCASTI
      00FF02C3H   CODE     NEAR LAB  ?C?FCASTL
      00FF0916H   CODE     ---       ?C?FP2SERIES
      00FF00A4H   CODE     ---       ?C?FPADD
      00FF027FH   CODE     ---       ?C?FPCMP
      00FF027DH   CODE     ---       ?C?FPCMP3
      00FF0951H   CODE     ---       ?C?FPCONVERT
      00FF01FCH   CODE     ---       ?C?FPDIV
      00FF0489H   CODE     ---       ?C?FPGETOPN2
      00FF015CH   CODE     ---       ?C?FPMUL
      00FF04C6H   CODE     ---       ?C?FPNANRESULT
      00FF04CEH   CODE     ---       ?C?FPOVERFLOW
      00FF04A2H   CODE     ---       ?C?FPRESULT
      00FF04B8H   CODE     ---       ?C?FPRESULT2
      00FF0A09H   CODE     ---       ?C?FPROUND
      00FF091FH   CODE     ---       ?C?FPSERIES
      00FF00A1H   CODE     ---       ?C?FPSUB
      00FF04CBH   CODE     ---       ?C?FPUNDERFLOW
      00FF0A7CH   CODE     ---       ?C?FTNPWR
      00FF2389H   CODE     ---       ?C?INITEDATA
      00FF28CDH   HCONST   WORD      ?C?INITEDATA_END
      00FF0507H   CODE     ---       ?C?PRNFMT
      00FF0000H   CODE     ---       ?C?STARTUP
      00FF0AB5H   CODE     NEAR LAB  ?C?ULDIV
      00FF0AB3H   CODE     NEAR LAB  ?C?ULIDIV
      00000001H   NUMBER   ---       ?C?XDATASEG
      00FF0000H   CODE     ---       ?C_STARTUP
      000004B9H   EDATA    BYTE      ?EEPROM_read?BYTE
      00000469H   EDATA    BYTE      ?EEPROM_write?BYTE
      0000042DH   EDATA    BYTE      ?SmothCpsCalcRate?BYTE
      000003C3H   EDATA    ---       ?sprintf?BYTE
      00FF1F3DH   CODE     ---       ACK_CMD_B
      00FF2777H   CODE     ---       ACK_CMD_C
      00FF2175H   CODE     ---       ACK_CMD_F
      00FF264AH   CODE     ---       ACK_CMD_H
      00FF0026H   CODE     ---       ACK_CMD_J
L251 LINKER/LOCATER V4.66.93.0                                                        06/13/2023  16:02:14  PAGE 10


      00FF2760H   CODE     ---       ACK_CMD_M
      00FF1CDAH   CODE     ---       ACK_CMD_N
      00FF225BH   CODE     ---       ACK_CMD_P
      00FF20BFH   CODE     ---       ACK_CMD_R
      00FF2781H   CODE     ---       ACK_CMD_T
      00FF1D61H   CODE     ---       ACK_CMD_V
      00FF1A88H   CODE     ---       ACK_CMD_W
*SFR* 000000BCH   DATA     BYTE      ADC_CONTR
*SFR* 000000DEH   DATA     BYTE      ADCCFG
      00FF0003H   CODE     ---       AddCounter
      00FF000EH   CODE     ---       AlarmConfirm
      00FF1DE2H   CODE     ---       atoi?_
*SFR* 000000EFH   DATA     BYTE      AUXINTIF
*SFR* 0000008EH   DATA     BYTE      AUXR
*SFR* 00000097H   DATA     BYTE      AUXR2
      00000020H.0 BIT      BIT       B_TX1_Busy
      00FF0EA6H   CODE     ---       CalcAlarmState
*SFR* 000000F1H   DATA     BYTE      CANICR
      00FF1C4BH   CODE     ---       CaptureSensorPluseCounter
      00FF2331H   CODE     ---       checkApp
      00FF21C4H   CODE     ---       CheckSum
      00FF2613H   CODE     ---       ClearCounter
      00FF272FH   CODE     ---       ClearRs485Buf
*SFR* 000000E6H   DATA     BYTE      CMPCR1
*SFR* 000000E7H   DATA     BYTE      CMPCR2
      00000027H   EDATA    ---       CpsArr
      000003CFH   EDATA    BYTE      CPSFlag
      00FF13B5H   CODE     ---       DataPro
      00FF22A4H   CODE     ---       delay_ms
      00FF267CH   CODE     ---       delay_us
      00FF26DCH   CODE     ---       DisableEEPROM
      00FF2002H   CODE     ---       DwordToSmall
*SFR* 000000A8H.7 DATA     BIT       EA
*SFR* 000000BAH.7 DATA     BIT       EAXFR
      00FF1ED1H   CODE     ---       EEPROM_read
      00FF2536H   CODE     ---       EEPROM_SectorErase
      00FF26ADH   CODE     ---       EEPROM_Trig
      00FF15D3H   CODE     ---       EEPROM_write
      00FF26C5H   CODE     ---       Error
*SFR* 000000A8H.4 DATA     BIT       ES
*SFR* 000000A8H.1 DATA     BIT       ET0
*SFR* 000000A8H.3 DATA     BIT       ET1
      00FF0396H   CODE     ---       exp?_
*SFR* 000000D0H.5 DATA     BIT       F0
      00FF1FA3H   CODE     ---       FloatToSmall
*DEL*:00000000H   CODE     ---       Get_Low_Counter
*DEL*:00000000H   CODE     ---       Get_Low_Smooth_Counter
      00FF271CH   CODE     ---       GetCounter
*DEL*:00000000H   CODE     ---       GetHis
      00FF242CH   CODE     ---       GetPara
*DEL*:00000000H   CODE     ---       GetSensorType
      000002B9H   EDATA    ---       gs_CMD
*SFR* 000000F6H   DATA     BYTE      IAP_ADDRE
*SFR* 000000C3H   DATA     BYTE      IAP_ADDRH
*SFR* 000000C4H   DATA     BYTE      IAP_ADDRL
*SFR* 000000C5H   DATA     BYTE      IAP_CMD
*SFR* 000000C7H   DATA     BYTE      IAP_CONTR
*SFR* 000000C2H   DATA     BYTE      IAP_DATA
*SFR* 000000F5H   DATA     BYTE      IAP_TPS
*SFR* 000000C6H   DATA     BYTE      IAP_TRIG
*SFR* 000000A8H   DATA     BYTE      IE
*SFR* 000000AFH   DATA     BYTE      IE2
      00FF211BH   CODE     ---       InitArr
      00FF19C1H   CODE     ---       InitParam
*SFR* 0000008FH   DATA     BYTE      INTCLKO
L251 LINKER/LOCATER V4.66.93.0                                                        06/13/2023  16:02:14  PAGE 11


      00FF2466H   CODE     ---       IoInit
*SFR* 000000B8H   DATA     BYTE      IP
*SFR* 000000B5H   DATA     BYTE      IP2
*SFR* 000000B6H   DATA     BYTE      IP2H
*SFR* 000000DFH   DATA     BYTE      IP3
*SFR* 000000EEH   DATA     BYTE      IP3H
*SFR* 000000B7H   DATA     BYTE      IPH
*SFR* 0000009DH   DATA     BYTE      IRCBAND
      00FF2741H   CODE     ---       isdigit?_
      00FF2708H   CODE     ---       isspace?_
*SFR* 000000F9H   DATA     BYTE      LINICR
      000004EAH   EDATA    BYTE      LowOverFlowFlag
      00FF1E61H   CODE     ---       main
      00FF0B2BH   CODE     ---       MCP4725_OutVol
      00FF2507H   CODE     ---       memcmp?_
      00FF258BH   CODE     ---       memcpy?_
      00FF2630H   CODE     ---       memset?_
*SFR* 00000080H   DATA     BYTE      P0
*SFR* 00000094H   DATA     BYTE      P0M0
*SFR* 00000093H   DATA     BYTE      P0M1
*SFR* 00000090H   DATA     BYTE      P1
*SFR* 00000092H   DATA     BYTE      P1M0
*SFR* 00000091H   DATA     BYTE      P1M1
*SFR* 000000A0H   DATA     BYTE      P2
      00000532H   EDATA    BYTE      P2DIR
*SFR* 00000096H   DATA     BYTE      P2M0
*SFR* 00000095H   DATA     BYTE      P2M1
*SFR* 000000B0H   DATA     BYTE      P3
*SFR* 000000B2H   DATA     BYTE      P3M0
*SFR* 000000B1H   DATA     BYTE      P3M1
*SFR* 000000C0H   DATA     BYTE      P4
*SFR* 000000B4H   DATA     BYTE      P4M0
*SFR* 000000B3H   DATA     BYTE      P4M1
*SFR* 000000C8H   DATA     BYTE      P5
*SFR* 000000CAH   DATA     BYTE      P5M0
*SFR* 000000C9H   DATA     BYTE      P5M1
*SFR* 000000E8H   DATA     BYTE      P6
*SFR* 000000CCH   DATA     BYTE      P6M0
*SFR* 000000CBH   DATA     BYTE      P6M1
*SFR* 000000F8H   DATA     BYTE      P7
*SFR* 000000E2H   DATA     BYTE      P7M0
*SFR* 000000E1H   DATA     BYTE      P7M1
*SFR* 000000A2H   DATA     BYTE      P_SW1
*SFR* 000000BAH   DATA     BYTE      P_SW2
*SFR* 000000BBH   DATA     BYTE      P_SW3
      000003D0H   EDATA    FLOAT     parama
      000003D4H   EDATA    FLOAT     paramb
      000003D8H   EDATA    FLOAT     paramc
      000003DCH   EDATA    FLOAT     paramd
*SFR* 00000087H   DATA     BYTE      PCON
      000004E3H   EDATA    DWORD     PluseCnt
      000004E7H   EDATA    BYTE      PlusePortCnt
*SFR* 000000B8H.4 DATA     BIT       PS
*SFR* 000000B7H.4 DATA     BIT       PSH
*SFR* 000000D0H   DATA     BYTE      PSW
*SFR* 000000B8H.1 DATA     BIT       PT0
*SFR* 000000B7H.1 DATA     BIT       PT0H
      00FF1BBCH   CODE     ---       PushCps
*DEL*:00000000H   CODE     ---       putchar
      00FF2695H   CODE     ---       ReadCS
      00FF2663H   CODE     ---       RefreshParam
*DEL*:00000000H   CODE     ---       ResvCps
*SFR* 00000098H.0 DATA     BIT       RI
      00FF25D4H   CODE     ---       Rs485Hnd
*SFR* 000000FFH   DATA     BYTE      RSTCFG
L251 LINKER/LOCATER V4.66.93.0                                                        06/13/2023  16:02:14  PAGE 12


      00000141H   EDATA    ---       RX1_Buffer
      0000020BH   EDATA    BYTE      RX1_Cnt
      00000209H   EDATA    WORD      Rx1_Timer
*SFR* 0000009AH   DATA     BYTE      S2CON
*SFR* 000000ACH   DATA     BYTE      S3CON
*SFR* 000000FDH   DATA     BYTE      S4CON
      000002BEH   EDATA    ---       s_Head
      00FF276DH   CODE     ---       SaveParam
*SFR* 00000099H   DATA     BYTE      SBUF
*SFR* 00000098H   DATA     BYTE      SCON
      000002C3H   EDATA    ---       sendbuf
      00FF17F9H   CODE     ---       SendData
      00FF24D5H   CODE     ---       SensorInit
      00FF0096H   CODE     ---       SensorMeasureBegin
      00FF249FH   CODE     ---       SetCS
      00FF1B2DH   CODE     ---       SmothCpsCalcRate
*SFR* 000000CEH   DATA     BYTE      SPCTL
      00FF033DH   CODE     NEAR LAB  sprintf
*SFR* 000000CDH   DATA     BYTE      SPSTAT
      00FF03F9H   CODE     ---       sqrt?_
      00FF2563H   CODE     ---       SysInit
      0000020DH   EDATA    ---       SysRunState
*SFR* 000000D4H   DATA     BYTE      T3H
*SFR* 000000D5H   DATA     BYTE      T3L
*SFR* 000000DDH.3 DATA     BIT       T3R
*SFR* 000000DDH   DATA     BYTE      T4T3M
*SFR* 00000088H   DATA     BYTE      TCON
*SFR* 00000088H.5 DATA     BIT       TF0
*SFR* 00000088H.7 DATA     BIT       TF1
*SFR* 0000008CH   DATA     BYTE      TH0
*SFR* 0000008DH   DATA     BYTE      TH1
*SFR* 00000098H.1 DATA     BIT       TI
      00FF25F5H   CODE     ---       Timer0_Init
      00FF25B0H   CODE     ---       Timer0_Isr
      000004E8H   EDATA    WORD      Timer0Cnt
*DEL*:00000000H   CODE     ---       Timer1_Init
      00FF2751H   CODE     ---       Timer3_Init
      00FF26F2H   CODE     ---       Timer3_Isr
      00FF18EEH   CODE     ---       TimerTask
*SFR* 0000008AH   DATA     BYTE      TL0
*SFR* 0000008BH   DATA     BYTE      TL1
*SFR* 00000089H   DATA     BYTE      TMOD
*SFR* 00000088H.4 DATA     BIT       TR0
*SFR* 00000088H.6 DATA     BIT       TR1
      0000020CH   EDATA    BYTE      TX1_Cnt
      00FF23B5H   CODE     ---       Uart1_Init
      00FF2210H   CODE     ---       UART1_ISR
      00FF22EBH   CODE     ---       uart_send
*SFR* 000000F4H   DATA     BYTE      USBCON
*SFR* 000000C1H   DATA     BYTE      WDT_CONTR
*DEL*:00000000H   CODE     ---       WordToSmall
      00FF23F1H   CODE     ---       WritePara
*SFR* 000000E9H   DATA     BYTE      WTST



SYMBOL TABLE OF MODULE:  .\obj\PileCore (CalcDoseRate)

      VALUE       REP       CLASS    TYPE      SYMBOL NAME
      ====================================================
      ---         MODULE    ---      ---       CalcDoseRate
      00FF1B2DH   PUBLIC    CODE     ---       SmothCpsCalcRate
      00FF211BH   PUBLIC    CODE     ---       InitArr
      00FF1BBCH   PUBLIC    CODE     ---       PushCps
      00FF2613H   PUBLIC    CODE     ---       ClearCounter
L251 LINKER/LOCATER V4.66.93.0                                                        06/13/2023  16:02:14  PAGE 13


      00FF0003H   PUBLIC    CODE     ---       AddCounter
      00000027H   PUBLIC    EDATA    ---       CpsArr
      0000042DH   PUBLIC    EDATA    BYTE      ?SmothCpsCalcRate?BYTE
      000000D0H   SFRSYM    DATA     BYTE      PSW
      0000009DH   SFRSYM    DATA     BYTE      IRCBAND
      00000097H   SFRSYM    DATA     BYTE      AUXR2
      000000EFH   SFRSYM    DATA     BYTE      AUXINTIF
      000000FDH   SFRSYM    DATA     BYTE      S4CON
      000000ACH   SFRSYM    DATA     BYTE      S3CON
      0000009AH   SFRSYM    DATA     BYTE      S2CON
      000000B7H   SFRSYM    DATA     BYTE      IPH
      000000CDH   SFRSYM    DATA     BYTE      SPSTAT
      000000DDH   SFRSYM    DATA     BYTE      T4T3M
      000000C1H   SFRSYM    DATA     BYTE      WDT_CONTR
      000000DFH   SFRSYM    DATA     BYTE      IP3
      000000F4H   SFRSYM    DATA     BYTE      USBCON
      000000B5H   SFRSYM    DATA     BYTE      IP2
      000000FFH   SFRSYM    DATA     BYTE      RSTCFG
      000000C7H   SFRSYM    DATA     BYTE      IAP_CONTR
      000000F9H   SFRSYM    DATA     BYTE      LINICR
      0000008EH   SFRSYM    DATA     BYTE      AUXR
      000000AFH   SFRSYM    DATA     BYTE      IE2
      00000088H   SFRSYM    DATA     BYTE      TCON
      00000089H   SFRSYM    DATA     BYTE      TMOD
      00000098H   SFRSYM    DATA     BYTE      SCON
      000000F1H   SFRSYM    DATA     BYTE      CANICR
      00000087H   SFRSYM    DATA     BYTE      PCON
      000000BCH   SFRSYM    DATA     BYTE      ADC_CONTR
      000000E7H   SFRSYM    DATA     BYTE      CMPCR2
      000000E6H   SFRSYM    DATA     BYTE      CMPCR1
      000000DEH   SFRSYM    DATA     BYTE      ADCCFG
      000000B8H   SFRSYM    DATA     BYTE      IP
      0000008FH   SFRSYM    DATA     BYTE      INTCLKO
      000000EEH   SFRSYM    DATA     BYTE      IP3H
      000000B6H   SFRSYM    DATA     BYTE      IP2H
      000000A8H   SFRSYM    DATA     BYTE      IE
      000000BBH   SFRSYM    DATA     BYTE      P_SW3
      000000BAH   SFRSYM    DATA     BYTE      P_SW2
      000000A2H   SFRSYM    DATA     BYTE      P_SW1
      000000CEH   SFRSYM    DATA     BYTE      SPCTL
      000000F8H   SFRSYM    DATA     BYTE      P7
      000000E8H   SFRSYM    DATA     BYTE      P6
      000000C8H   SFRSYM    DATA     BYTE      P5
      000000C0H   SFRSYM    DATA     BYTE      P4
      000000B0H   SFRSYM    DATA     BYTE      P3
      000000A0H   SFRSYM    DATA     BYTE      P2
      00000090H   SFRSYM    DATA     BYTE      P1
      00000080H   SFRSYM    DATA     BYTE      P0

      ---         MODULE    ---      ---       CMD
      00FF276DH   PUBLIC    CODE     ---       SaveParam
      00FF17F9H   PUBLIC    CODE     ---       SendData
      00FF23F1H   PUBLIC    CODE     ---       WritePara
      00FF2695H   PUBLIC    CODE     ---       ReadCS
      00FF21C4H   PUBLIC    CODE     ---       CheckSum
      00FF1F3DH   PUBLIC    CODE     ---       ACK_CMD_B
      00FF242CH   PUBLIC    CODE     ---       GetPara
      00FF2777H   PUBLIC    CODE     ---       ACK_CMD_C
      00FF2175H   PUBLIC    CODE     ---       ACK_CMD_F
      00FF264AH   PUBLIC    CODE     ---       ACK_CMD_H
      00FF0026H   PUBLIC    CODE     ---       ACK_CMD_J
      00FF13B5H   PUBLIC    CODE     ---       DataPro
      00FF2760H   PUBLIC    CODE     ---       ACK_CMD_M
      00FF1CDAH   PUBLIC    CODE     ---       ACK_CMD_N
      00FF225BH   PUBLIC    CODE     ---       ACK_CMD_P
L251 LINKER/LOCATER V4.66.93.0                                                        06/13/2023  16:02:14  PAGE 14


      00FF20BFH   PUBLIC    CODE     ---       ACK_CMD_R
      00FF2781H   PUBLIC    CODE     ---       ACK_CMD_T
      00FF1FA3H   PUBLIC    CODE     ---       FloatToSmall
      00FF1D61H   PUBLIC    CODE     ---       ACK_CMD_V
      00FF1A88H   PUBLIC    CODE     ---       ACK_CMD_W
      00FF000EH   PUBLIC    CODE     ---       AlarmConfirm
      00FF2002H   PUBLIC    CODE     ---       DwordToSmall
      00FF249FH   PUBLIC    CODE     ---       SetCS
      000002B9H   PUBLIC    EDATA    ---       gs_CMD
      000002BEH   PUBLIC    EDATA    ---       s_Head
      000002C3H   PUBLIC    EDATA    ---       sendbuf
      000000D0H   SFRSYM    DATA     BYTE      PSW
      0000009DH   SFRSYM    DATA     BYTE      IRCBAND
      00000097H   SFRSYM    DATA     BYTE      AUXR2
      000000EFH   SFRSYM    DATA     BYTE      AUXINTIF
      000000FDH   SFRSYM    DATA     BYTE      S4CON
      000000ACH   SFRSYM    DATA     BYTE      S3CON
      0000009AH   SFRSYM    DATA     BYTE      S2CON
      000000B7H   SFRSYM    DATA     BYTE      IPH
      000000CDH   SFRSYM    DATA     BYTE      SPSTAT
      000000DDH   SFRSYM    DATA     BYTE      T4T3M
      000000C1H   SFRSYM    DATA     BYTE      WDT_CONTR
      000000DFH   SFRSYM    DATA     BYTE      IP3
      000000F4H   SFRSYM    DATA     BYTE      USBCON
      000000B5H   SFRSYM    DATA     BYTE      IP2
      000000FFH   SFRSYM    DATA     BYTE      RSTCFG
      000000C7H   SFRSYM    DATA     BYTE      IAP_CONTR
      000000F9H   SFRSYM    DATA     BYTE      LINICR
      0000008EH   SFRSYM    DATA     BYTE      AUXR
      000000AFH   SFRSYM    DATA     BYTE      IE2
      00000088H   SFRSYM    DATA     BYTE      TCON
      00000089H   SFRSYM    DATA     BYTE      TMOD
      00000098H   SFRSYM    DATA     BYTE      SCON
      000000F1H   SFRSYM    DATA     BYTE      CANICR
      00000087H   SFRSYM    DATA     BYTE      PCON
      000000BCH   SFRSYM    DATA     BYTE      ADC_CONTR
      000000E7H   SFRSYM    DATA     BYTE      CMPCR2
      000000E6H   SFRSYM    DATA     BYTE      CMPCR1
      000000DEH   SFRSYM    DATA     BYTE      ADCCFG
      000000B8H   SFRSYM    DATA     BYTE      IP
      0000008FH   SFRSYM    DATA     BYTE      INTCLKO
      000000EEH   SFRSYM    DATA     BYTE      IP3H
      000000B6H   SFRSYM    DATA     BYTE      IP2H
      000000A8H   SFRSYM    DATA     BYTE      IE
      000000BBH   SFRSYM    DATA     BYTE      P_SW3
      000000BAH   SFRSYM    DATA     BYTE      P_SW2
      000000A2H   SFRSYM    DATA     BYTE      P_SW1
      000000CEH   SFRSYM    DATA     BYTE      SPCTL
      000000F8H   SFRSYM    DATA     BYTE      P7
      000000A8H.7 SFRSYM    DATA     BIT       EA
      000000E8H   SFRSYM    DATA     BYTE      P6
      000000C8H   SFRSYM    DATA     BYTE      P5
      000000C0H   SFRSYM    DATA     BYTE      P4
      000000B0H   SFRSYM    DATA     BYTE      P3
      000000A0H   SFRSYM    DATA     BYTE      P2
      00000090H   SFRSYM    DATA     BYTE      P1
      00000080H   SFRSYM    DATA     BYTE      P0

      ---         MODULE    ---      ---       flash
      00FF26DCH   PUBLIC    CODE     ---       DisableEEPROM
      00FF2536H   PUBLIC    CODE     ---       EEPROM_SectorErase
      00FF2331H   PUBLIC    CODE     ---       checkApp
      00FF26ADH   PUBLIC    CODE     ---       EEPROM_Trig
      00FF1ED1H   PUBLIC    CODE     ---       EEPROM_read
      00FF15D3H   PUBLIC    CODE     ---       EEPROM_write
L251 LINKER/LOCATER V4.66.93.0                                                        06/13/2023  16:02:14  PAGE 15


      000004B9H   PUBLIC    EDATA    BYTE      ?EEPROM_read?BYTE
      00000469H   PUBLIC    EDATA    BYTE      ?EEPROM_write?BYTE
      000000D0H   SFRSYM    DATA     BYTE      PSW
      0000009DH   SFRSYM    DATA     BYTE      IRCBAND
      000000D0H.5 SFRSYM    DATA     BIT       F0
      00000097H   SFRSYM    DATA     BYTE      AUXR2
      000000C6H   SFRSYM    DATA     BYTE      IAP_TRIG
      000000EFH   SFRSYM    DATA     BYTE      AUXINTIF
      000000FDH   SFRSYM    DATA     BYTE      S4CON
      000000ACH   SFRSYM    DATA     BYTE      S3CON
      0000009AH   SFRSYM    DATA     BYTE      S2CON
      000000B7H   SFRSYM    DATA     BYTE      IPH
      000000CDH   SFRSYM    DATA     BYTE      SPSTAT
      000000DDH   SFRSYM    DATA     BYTE      T4T3M
      000000C1H   SFRSYM    DATA     BYTE      WDT_CONTR
      000000C2H   SFRSYM    DATA     BYTE      IAP_DATA
      000000DFH   SFRSYM    DATA     BYTE      IP3
      000000F4H   SFRSYM    DATA     BYTE      USBCON
      000000B5H   SFRSYM    DATA     BYTE      IP2
      000000FFH   SFRSYM    DATA     BYTE      RSTCFG
      000000C7H   SFRSYM    DATA     BYTE      IAP_CONTR
      000000F9H   SFRSYM    DATA     BYTE      LINICR
      0000008EH   SFRSYM    DATA     BYTE      AUXR
      000000AFH   SFRSYM    DATA     BYTE      IE2
      00000088H   SFRSYM    DATA     BYTE      TCON
      00000089H   SFRSYM    DATA     BYTE      TMOD
      00000098H   SFRSYM    DATA     BYTE      SCON
      000000F5H   SFRSYM    DATA     BYTE      IAP_TPS
      000000F1H   SFRSYM    DATA     BYTE      CANICR
      00000087H   SFRSYM    DATA     BYTE      PCON
      000000BCH   SFRSYM    DATA     BYTE      ADC_CONTR
      000000E7H   SFRSYM    DATA     BYTE      CMPCR2
      000000E6H   SFRSYM    DATA     BYTE      CMPCR1
      000000C4H   SFRSYM    DATA     BYTE      IAP_ADDRL
      000000C3H   SFRSYM    DATA     BYTE      IAP_ADDRH
      000000F6H   SFRSYM    DATA     BYTE      IAP_ADDRE
      000000DEH   SFRSYM    DATA     BYTE      ADCCFG
      000000B8H   SFRSYM    DATA     BYTE      IP
      0000008FH   SFRSYM    DATA     BYTE      INTCLKO
      000000EEH   SFRSYM    DATA     BYTE      IP3H
      000000B6H   SFRSYM    DATA     BYTE      IP2H
      000000C5H   SFRSYM    DATA     BYTE      IAP_CMD
      000000A8H   SFRSYM    DATA     BYTE      IE
      000000BBH   SFRSYM    DATA     BYTE      P_SW3
      000000BAH   SFRSYM    DATA     BYTE      P_SW2
      000000A2H   SFRSYM    DATA     BYTE      P_SW1
      000000CEH   SFRSYM    DATA     BYTE      SPCTL
      000000F8H   SFRSYM    DATA     BYTE      P7
      000000A8H.7 SFRSYM    DATA     BIT       EA
      000000E8H   SFRSYM    DATA     BYTE      P6
      000000C8H   SFRSYM    DATA     BYTE      P5
      000000C0H   SFRSYM    DATA     BYTE      P4
      000000B0H   SFRSYM    DATA     BYTE      P3
      000000A0H   SFRSYM    DATA     BYTE      P2
      00000090H   SFRSYM    DATA     BYTE      P1
      00000080H   SFRSYM    DATA     BYTE      P0

      ---         MODULE    ---      ---       i2c
      00000532H   PUBLIC    EDATA    BYTE      P2DIR
      000000D0H   SFRSYM    DATA     BYTE      PSW
      0000009DH   SFRSYM    DATA     BYTE      IRCBAND
      00000097H   SFRSYM    DATA     BYTE      AUXR2
      000000EFH   SFRSYM    DATA     BYTE      AUXINTIF
      000000FDH   SFRSYM    DATA     BYTE      S4CON
      000000ACH   SFRSYM    DATA     BYTE      S3CON
L251 LINKER/LOCATER V4.66.93.0                                                        06/13/2023  16:02:14  PAGE 16


      0000009AH   SFRSYM    DATA     BYTE      S2CON
      000000B7H   SFRSYM    DATA     BYTE      IPH
      000000CDH   SFRSYM    DATA     BYTE      SPSTAT
      000000DDH   SFRSYM    DATA     BYTE      T4T3M
      000000C1H   SFRSYM    DATA     BYTE      WDT_CONTR
      000000DFH   SFRSYM    DATA     BYTE      IP3
      000000F4H   SFRSYM    DATA     BYTE      USBCON
      000000B5H   SFRSYM    DATA     BYTE      IP2
      000000FFH   SFRSYM    DATA     BYTE      RSTCFG
      000000C7H   SFRSYM    DATA     BYTE      IAP_CONTR
      000000F9H   SFRSYM    DATA     BYTE      LINICR
      0000008EH   SFRSYM    DATA     BYTE      AUXR
      000000AFH   SFRSYM    DATA     BYTE      IE2
      00000088H   SFRSYM    DATA     BYTE      TCON
      00000089H   SFRSYM    DATA     BYTE      TMOD
      00000098H   SFRSYM    DATA     BYTE      SCON
      000000F1H   SFRSYM    DATA     BYTE      CANICR
      00000087H   SFRSYM    DATA     BYTE      PCON
      000000BCH   SFRSYM    DATA     BYTE      ADC_CONTR
      000000E7H   SFRSYM    DATA     BYTE      CMPCR2
      000000E6H   SFRSYM    DATA     BYTE      CMPCR1
      000000DEH   SFRSYM    DATA     BYTE      ADCCFG
      000000B8H   SFRSYM    DATA     BYTE      IP
      0000008FH   SFRSYM    DATA     BYTE      INTCLKO
      000000EEH   SFRSYM    DATA     BYTE      IP3H
      000000B6H   SFRSYM    DATA     BYTE      IP2H
      000000A8H   SFRSYM    DATA     BYTE      IE
      000000BBH   SFRSYM    DATA     BYTE      P_SW3
      000000BAH   SFRSYM    DATA     BYTE      P_SW2
      000000A2H   SFRSYM    DATA     BYTE      P_SW1
      000000CEH   SFRSYM    DATA     BYTE      SPCTL
      000000F8H   SFRSYM    DATA     BYTE      P7
      000000E8H   SFRSYM    DATA     BYTE      P6
      000000C8H   SFRSYM    DATA     BYTE      P5
      000000C0H   SFRSYM    DATA     BYTE      P4
      000000B0H   SFRSYM    DATA     BYTE      P3
      000000A0H   SFRSYM    DATA     BYTE      P2
      00000090H   SFRSYM    DATA     BYTE      P1
      00000080H   SFRSYM    DATA     BYTE      P0

      ---         MODULE    ---      ---       mcp4725
      00FF0B2BH   PUBLIC    CODE     ---       MCP4725_OutVol
      000000D0H   SFRSYM    DATA     BYTE      PSW
      0000009DH   SFRSYM    DATA     BYTE      IRCBAND
      00000097H   SFRSYM    DATA     BYTE      AUXR2
      000000EFH   SFRSYM    DATA     BYTE      AUXINTIF
      000000FDH   SFRSYM    DATA     BYTE      S4CON
      000000ACH   SFRSYM    DATA     BYTE      S3CON
      0000009AH   SFRSYM    DATA     BYTE      S2CON
      000000B7H   SFRSYM    DATA     BYTE      IPH
      000000CDH   SFRSYM    DATA     BYTE      SPSTAT
      000000DDH   SFRSYM    DATA     BYTE      T4T3M
      000000C1H   SFRSYM    DATA     BYTE      WDT_CONTR
      000000DFH   SFRSYM    DATA     BYTE      IP3
      000000F4H   SFRSYM    DATA     BYTE      USBCON
      000000B5H   SFRSYM    DATA     BYTE      IP2
      000000FFH   SFRSYM    DATA     BYTE      RSTCFG
      000000C7H   SFRSYM    DATA     BYTE      IAP_CONTR
      000000F9H   SFRSYM    DATA     BYTE      LINICR
      0000008EH   SFRSYM    DATA     BYTE      AUXR
      000000AFH   SFRSYM    DATA     BYTE      IE2
      00000088H   SFRSYM    DATA     BYTE      TCON
      00000089H   SFRSYM    DATA     BYTE      TMOD
      00000098H   SFRSYM    DATA     BYTE      SCON
      000000F1H   SFRSYM    DATA     BYTE      CANICR
L251 LINKER/LOCATER V4.66.93.0                                                        06/13/2023  16:02:14  PAGE 17


      00000087H   SFRSYM    DATA     BYTE      PCON
      000000BCH   SFRSYM    DATA     BYTE      ADC_CONTR
      000000E7H   SFRSYM    DATA     BYTE      CMPCR2
      000000E6H   SFRSYM    DATA     BYTE      CMPCR1
      000000DEH   SFRSYM    DATA     BYTE      ADCCFG
      000000B8H   SFRSYM    DATA     BYTE      IP
      0000008FH   SFRSYM    DATA     BYTE      INTCLKO
      000000EEH   SFRSYM    DATA     BYTE      IP3H
      000000B6H   SFRSYM    DATA     BYTE      IP2H
      000000A8H   SFRSYM    DATA     BYTE      IE
      000000BBH   SFRSYM    DATA     BYTE      P_SW3
      000000BAH   SFRSYM    DATA     BYTE      P_SW2
      000000A2H   SFRSYM    DATA     BYTE      P_SW1
      000000CEH   SFRSYM    DATA     BYTE      SPCTL
      000000F8H   SFRSYM    DATA     BYTE      P7
      000000E8H   SFRSYM    DATA     BYTE      P6
      000000C8H   SFRSYM    DATA     BYTE      P5
      000000C0H   SFRSYM    DATA     BYTE      P4
      000000B0H   SFRSYM    DATA     BYTE      P3
      000000A0H   SFRSYM    DATA     BYTE      P2
      00000090H   SFRSYM    DATA     BYTE      P1
      00000080H   SFRSYM    DATA     BYTE      P0

      ---         MODULE    ---      ---       Sensor
      00FF24D5H   PUBLIC    CODE     ---       SensorInit
      00FF0096H   PUBLIC    CODE     ---       SensorMeasureBegin
      00FF2663H   PUBLIC    CODE     ---       RefreshParam
      00FF1C4BH   PUBLIC    CODE     ---       CaptureSensorPluseCounter
      00FF0EA6H   PUBLIC    CODE     ---       CalcAlarmState
      000003CFH   PUBLIC    EDATA    BYTE      CPSFlag
      000003D0H   PUBLIC    EDATA    FLOAT     parama
      000003D4H   PUBLIC    EDATA    FLOAT     paramb
      000003D8H   PUBLIC    EDATA    FLOAT     paramc
      000003DCH   PUBLIC    EDATA    FLOAT     paramd
      000000D0H   SFRSYM    DATA     BYTE      PSW
      0000009DH   SFRSYM    DATA     BYTE      IRCBAND
      00000097H   SFRSYM    DATA     BYTE      AUXR2
      000000EFH   SFRSYM    DATA     BYTE      AUXINTIF
      000000FDH   SFRSYM    DATA     BYTE      S4CON
      000000ACH   SFRSYM    DATA     BYTE      S3CON
      0000009AH   SFRSYM    DATA     BYTE      S2CON
      000000B7H   SFRSYM    DATA     BYTE      IPH
      000000CDH   SFRSYM    DATA     BYTE      SPSTAT
      000000DDH   SFRSYM    DATA     BYTE      T4T3M
      000000C1H   SFRSYM    DATA     BYTE      WDT_CONTR
      000000DFH   SFRSYM    DATA     BYTE      IP3
      000000F4H   SFRSYM    DATA     BYTE      USBCON
      000000B5H   SFRSYM    DATA     BYTE      IP2
      000000FFH   SFRSYM    DATA     BYTE      RSTCFG
      000000C7H   SFRSYM    DATA     BYTE      IAP_CONTR
      000000F9H   SFRSYM    DATA     BYTE      LINICR
      0000008EH   SFRSYM    DATA     BYTE      AUXR
      000000AFH   SFRSYM    DATA     BYTE      IE2
      00000088H   SFRSYM    DATA     BYTE      TCON
      00000089H   SFRSYM    DATA     BYTE      TMOD
      00000098H   SFRSYM    DATA     BYTE      SCON
      000000F1H   SFRSYM    DATA     BYTE      CANICR
      00000087H   SFRSYM    DATA     BYTE      PCON
      000000BCH   SFRSYM    DATA     BYTE      ADC_CONTR
      000000E7H   SFRSYM    DATA     BYTE      CMPCR2
      000000E6H   SFRSYM    DATA     BYTE      CMPCR1
      000000DEH   SFRSYM    DATA     BYTE      ADCCFG
      000000B8H   SFRSYM    DATA     BYTE      IP
      0000008FH   SFRSYM    DATA     BYTE      INTCLKO
      000000EEH   SFRSYM    DATA     BYTE      IP3H
L251 LINKER/LOCATER V4.66.93.0                                                        06/13/2023  16:02:14  PAGE 18


      000000B6H   SFRSYM    DATA     BYTE      IP2H
      000000A8H   SFRSYM    DATA     BYTE      IE
      000000BBH   SFRSYM    DATA     BYTE      P_SW3
      000000BAH   SFRSYM    DATA     BYTE      P_SW2
      000000A2H   SFRSYM    DATA     BYTE      P_SW1
      000000CEH   SFRSYM    DATA     BYTE      SPCTL
      000000F8H   SFRSYM    DATA     BYTE      P7
      000000E8H   SFRSYM    DATA     BYTE      P6
      000000C8H   SFRSYM    DATA     BYTE      P5
      000000C0H   SFRSYM    DATA     BYTE      P4
      000000B0H   SFRSYM    DATA     BYTE      P3
      000000A0H   SFRSYM    DATA     BYTE      P2
      00000090H   SFRSYM    DATA     BYTE      P1
      00000080H   SFRSYM    DATA     BYTE      P0

      ---         MODULE    ---      ---       system
      00FF271CH   PUBLIC    CODE     ---       GetCounter
      00FF25F5H   PUBLIC    CODE     ---       Timer0_Init
      00FF2751H   PUBLIC    CODE     ---       Timer3_Init
      00FF25B0H   PUBLIC    CODE     ---       Timer0_Isr
      00FF26F2H   PUBLIC    CODE     ---       Timer3_Isr
      00FF2563H   PUBLIC    CODE     ---       SysInit
      000004E3H   PUBLIC    EDATA    DWORD     PluseCnt
      000004E7H   PUBLIC    EDATA    BYTE      PlusePortCnt
      000004E8H   PUBLIC    EDATA    WORD      Timer0Cnt
      000004EAH   PUBLIC    EDATA    BYTE      LowOverFlowFlag
      000000D0H   SFRSYM    DATA     BYTE      PSW
      0000009DH   SFRSYM    DATA     BYTE      IRCBAND
      00000097H   SFRSYM    DATA     BYTE      AUXR2
      000000EFH   SFRSYM    DATA     BYTE      AUXINTIF
      000000FDH   SFRSYM    DATA     BYTE      S4CON
      000000ACH   SFRSYM    DATA     BYTE      S3CON
      0000009AH   SFRSYM    DATA     BYTE      S2CON
      000000B7H   SFRSYM    DATA     BYTE      IPH
      000000CDH   SFRSYM    DATA     BYTE      SPSTAT
      000000DDH   SFRSYM    DATA     BYTE      T4T3M
      000000C1H   SFRSYM    DATA     BYTE      WDT_CONTR
      00000088H.6 SFRSYM    DATA     BIT       TR1
      00000088H.4 SFRSYM    DATA     BIT       TR0
      000000B8H.1 SFRSYM    DATA     BIT       PT0
      000000D5H   SFRSYM    DATA     BYTE      T3L
      0000008BH   SFRSYM    DATA     BYTE      TL1
      0000008AH   SFRSYM    DATA     BYTE      TL0
      000000D4H   SFRSYM    DATA     BYTE      T3H
      0000008DH   SFRSYM    DATA     BYTE      TH1
      0000008CH   SFRSYM    DATA     BYTE      TH0
      000000DFH   SFRSYM    DATA     BYTE      IP3
      000000F4H   SFRSYM    DATA     BYTE      USBCON
      00000088H.7 SFRSYM    DATA     BIT       TF1
      000000B5H   SFRSYM    DATA     BYTE      IP2
      000000FFH   SFRSYM    DATA     BYTE      RSTCFG
      00000088H.5 SFRSYM    DATA     BIT       TF0
      000000A8H.3 SFRSYM    DATA     BIT       ET1
      000000A8H.1 SFRSYM    DATA     BIT       ET0
      000000C7H   SFRSYM    DATA     BYTE      IAP_CONTR
      000000F9H   SFRSYM    DATA     BYTE      LINICR
      0000008EH   SFRSYM    DATA     BYTE      AUXR
      000000AFH   SFRSYM    DATA     BYTE      IE2
      00000088H   SFRSYM    DATA     BYTE      TCON
      00000089H   SFRSYM    DATA     BYTE      TMOD
      00000098H   SFRSYM    DATA     BYTE      SCON
      000000F1H   SFRSYM    DATA     BYTE      CANICR
      00000087H   SFRSYM    DATA     BYTE      PCON
      000000BCH   SFRSYM    DATA     BYTE      ADC_CONTR
      000000E7H   SFRSYM    DATA     BYTE      CMPCR2
L251 LINKER/LOCATER V4.66.93.0                                                        06/13/2023  16:02:14  PAGE 19


      000000E6H   SFRSYM    DATA     BYTE      CMPCR1
      000000B7H.1 SFRSYM    DATA     BIT       PT0H
      000000DEH   SFRSYM    DATA     BYTE      ADCCFG
      000000B8H   SFRSYM    DATA     BYTE      IP
      0000008FH   SFRSYM    DATA     BYTE      INTCLKO
      000000EEH   SFRSYM    DATA     BYTE      IP3H
      000000B6H   SFRSYM    DATA     BYTE      IP2H
      000000A8H   SFRSYM    DATA     BYTE      IE
      000000BBH   SFRSYM    DATA     BYTE      P_SW3
      000000BAH   SFRSYM    DATA     BYTE      P_SW2
      000000A2H   SFRSYM    DATA     BYTE      P_SW1
      000000CEH   SFRSYM    DATA     BYTE      SPCTL
      000000F8H   SFRSYM    DATA     BYTE      P7
      000000E8H   SFRSYM    DATA     BYTE      P6
      000000C8H   SFRSYM    DATA     BYTE      P5
      000000C0H   SFRSYM    DATA     BYTE      P4
      000000B0H   SFRSYM    DATA     BYTE      P3
      000000A0H   SFRSYM    DATA     BYTE      P2
      00000090H   SFRSYM    DATA     BYTE      P1
      00000080H   SFRSYM    DATA     BYTE      P0

      ---         MODULE    ---      ---       uart
      00FF2210H   PUBLIC    CODE     ---       UART1_ISR
      00FF23B5H   PUBLIC    CODE     ---       Uart1_Init
      00FF22EBH   PUBLIC    CODE     ---       uart_send
      00FF272FH   PUBLIC    CODE     ---       ClearRs485Buf
      00000020H.0 PUBLIC    BIT      BIT       B_TX1_Busy
      00000141H   PUBLIC    EDATA    ---       RX1_Buffer
      00000209H   PUBLIC    EDATA    WORD      Rx1_Timer
      0000020BH   PUBLIC    EDATA    BYTE      RX1_Cnt
      0000020CH   PUBLIC    EDATA    BYTE      TX1_Cnt
      000000D0H   SFRSYM    DATA     BYTE      PSW
      0000009DH   SFRSYM    DATA     BYTE      IRCBAND
      00000097H   SFRSYM    DATA     BYTE      AUXR2
      000000B7H.4 SFRSYM    DATA     BIT       PSH
      000000EFH   SFRSYM    DATA     BYTE      AUXINTIF
      000000FDH   SFRSYM    DATA     BYTE      S4CON
      000000ACH   SFRSYM    DATA     BYTE      S3CON
      0000009AH   SFRSYM    DATA     BYTE      S2CON
      000000B7H   SFRSYM    DATA     BYTE      IPH
      000000CDH   SFRSYM    DATA     BYTE      SPSTAT
      000000DDH   SFRSYM    DATA     BYTE      T4T3M
      000000C1H   SFRSYM    DATA     BYTE      WDT_CONTR
      00000088H.6 SFRSYM    DATA     BIT       TR1
      0000008BH   SFRSYM    DATA     BYTE      TL1
      0000008DH   SFRSYM    DATA     BYTE      TH1
      000000DFH   SFRSYM    DATA     BYTE      IP3
      000000F4H   SFRSYM    DATA     BYTE      USBCON
      000000B5H   SFRSYM    DATA     BYTE      IP2
      000000FFH   SFRSYM    DATA     BYTE      RSTCFG
      000000A8H.3 SFRSYM    DATA     BIT       ET1
      000000C7H   SFRSYM    DATA     BYTE      IAP_CONTR
      000000F9H   SFRSYM    DATA     BYTE      LINICR
      0000008EH   SFRSYM    DATA     BYTE      AUXR
      000000AFH   SFRSYM    DATA     BYTE      IE2
      00000088H   SFRSYM    DATA     BYTE      TCON
      00000089H   SFRSYM    DATA     BYTE      TMOD
      00000098H   SFRSYM    DATA     BYTE      SCON
      000000F1H   SFRSYM    DATA     BYTE      CANICR
      00000087H   SFRSYM    DATA     BYTE      PCON
      00000099H   SFRSYM    DATA     BYTE      SBUF
      000000BCH   SFRSYM    DATA     BYTE      ADC_CONTR
      000000E7H   SFRSYM    DATA     BYTE      CMPCR2
      000000E6H   SFRSYM    DATA     BYTE      CMPCR1
      000000B8H.4 SFRSYM    DATA     BIT       PS
L251 LINKER/LOCATER V4.66.93.0                                                        06/13/2023  16:02:14  PAGE 20


      00000098H.1 SFRSYM    DATA     BIT       TI
      00000098H.0 SFRSYM    DATA     BIT       RI
      000000DEH   SFRSYM    DATA     BYTE      ADCCFG
      000000B8H   SFRSYM    DATA     BYTE      IP
      000000A8H.4 SFRSYM    DATA     BIT       ES
      0000008FH   SFRSYM    DATA     BYTE      INTCLKO
      000000EEH   SFRSYM    DATA     BYTE      IP3H
      000000B6H   SFRSYM    DATA     BYTE      IP2H
      000000A8H   SFRSYM    DATA     BYTE      IE
      000000BBH   SFRSYM    DATA     BYTE      P_SW3
      000000BAH   SFRSYM    DATA     BYTE      P_SW2
      000000A2H   SFRSYM    DATA     BYTE      P_SW1
      000000CEH   SFRSYM    DATA     BYTE      SPCTL
      000000F8H   SFRSYM    DATA     BYTE      P7
      000000E8H   SFRSYM    DATA     BYTE      P6
      000000C8H   SFRSYM    DATA     BYTE      P5
      000000C0H   SFRSYM    DATA     BYTE      P4
      000000B0H   SFRSYM    DATA     BYTE      P3
      000000A0H   SFRSYM    DATA     BYTE      P2
      00000090H   SFRSYM    DATA     BYTE      P1
      00000080H   SFRSYM    DATA     BYTE      P0

      ---         MODULE    ---      ---       main
      00FF25D4H   PUBLIC    CODE     ---       Rs485Hnd
      00FF19C1H   PUBLIC    CODE     ---       InitParam
      00FF26C5H   PUBLIC    CODE     ---       Error
      00FF18EEH   PUBLIC    CODE     ---       TimerTask
      00FF1E61H   PUBLIC    CODE     ---       main
      00FF2466H   PUBLIC    CODE     ---       IoInit
      00FF22A4H   PUBLIC    CODE     ---       delay_ms
      00FF267CH   PUBLIC    CODE     ---       delay_us
      0000020DH   PUBLIC    EDATA    ---       SysRunState
      00000094H   SFRSYM    DATA     BYTE      P0M0
      000000D0H   SFRSYM    DATA     BYTE      PSW
      000000BAH.7 SFRSYM    DATA     BIT       EAXFR
      0000009DH   SFRSYM    DATA     BYTE      IRCBAND
      00000097H   SFRSYM    DATA     BYTE      AUXR2
      000000EFH   SFRSYM    DATA     BYTE      AUXINTIF
      000000FDH   SFRSYM    DATA     BYTE      S4CON
      000000ACH   SFRSYM    DATA     BYTE      S3CON
      0000009AH   SFRSYM    DATA     BYTE      S2CON
      000000B7H   SFRSYM    DATA     BYTE      IPH
      000000CDH   SFRSYM    DATA     BYTE      SPSTAT
      000000DDH   SFRSYM    DATA     BYTE      T4T3M
      000000DDH.3 SFRSYM    DATA     BIT       T3R
      000000C1H   SFRSYM    DATA     BYTE      WDT_CONTR
      000000D5H   SFRSYM    DATA     BYTE      T3L
      000000E9H   SFRSYM    DATA     BYTE      WTST
      000000D4H   SFRSYM    DATA     BYTE      T3H
      000000DFH   SFRSYM    DATA     BYTE      IP3
      000000F4H   SFRSYM    DATA     BYTE      USBCON
      000000B5H   SFRSYM    DATA     BYTE      IP2
      000000FFH   SFRSYM    DATA     BYTE      RSTCFG
      000000C7H   SFRSYM    DATA     BYTE      IAP_CONTR
      000000F9H   SFRSYM    DATA     BYTE      LINICR
      0000008EH   SFRSYM    DATA     BYTE      AUXR
      000000AFH   SFRSYM    DATA     BYTE      IE2
      00000088H   SFRSYM    DATA     BYTE      TCON
      00000089H   SFRSYM    DATA     BYTE      TMOD
      00000098H   SFRSYM    DATA     BYTE      SCON
      000000F1H   SFRSYM    DATA     BYTE      CANICR
      00000087H   SFRSYM    DATA     BYTE      PCON
      000000BCH   SFRSYM    DATA     BYTE      ADC_CONTR
      000000E7H   SFRSYM    DATA     BYTE      CMPCR2
      000000E6H   SFRSYM    DATA     BYTE      CMPCR1
L251 LINKER/LOCATER V4.66.93.0                                                        06/13/2023  16:02:14  PAGE 21


      000000DEH   SFRSYM    DATA     BYTE      ADCCFG
      000000B8H   SFRSYM    DATA     BYTE      IP
      0000008FH   SFRSYM    DATA     BYTE      INTCLKO
      000000EEH   SFRSYM    DATA     BYTE      IP3H
      000000B6H   SFRSYM    DATA     BYTE      IP2H
      000000A8H   SFRSYM    DATA     BYTE      IE
      000000BBH   SFRSYM    DATA     BYTE      P_SW3
      000000BAH   SFRSYM    DATA     BYTE      P_SW2
      000000A2H   SFRSYM    DATA     BYTE      P_SW1
      000000CEH   SFRSYM    DATA     BYTE      SPCTL
      000000F8H   SFRSYM    DATA     BYTE      P7
      000000A8H.7 SFRSYM    DATA     BIT       EA
      000000E1H   SFRSYM    DATA     BYTE      P7M1
      000000E8H   SFRSYM    DATA     BYTE      P6
      000000C8H   SFRSYM    DATA     BYTE      P5
      000000CBH   SFRSYM    DATA     BYTE      P6M1
      000000E2H   SFRSYM    DATA     BYTE      P7M0
      000000C0H   SFRSYM    DATA     BYTE      P4
      000000C9H   SFRSYM    DATA     BYTE      P5M1
      000000CCH   SFRSYM    DATA     BYTE      P6M0
      000000B0H   SFRSYM    DATA     BYTE      P3
      000000B3H   SFRSYM    DATA     BYTE      P4M1
      000000CAH   SFRSYM    DATA     BYTE      P5M0
      000000A0H   SFRSYM    DATA     BYTE      P2
      000000B1H   SFRSYM    DATA     BYTE      P3M1
      000000B4H   SFRSYM    DATA     BYTE      P4M0
      00000090H   SFRSYM    DATA     BYTE      P1
      00000095H   SFRSYM    DATA     BYTE      P2M1
      000000B2H   SFRSYM    DATA     BYTE      P3M0
      00000080H   SFRSYM    DATA     BYTE      P0
      00000091H   SFRSYM    DATA     BYTE      P1M1
      00000096H   SFRSYM    DATA     BYTE      P2M0
      00000092H   SFRSYM    DATA     BYTE      P1M0
      00000093H   SFRSYM    DATA     BYTE      P0M1

      ---         MODULE    ---      ---       ?C?FPADD
      00FF00A4H   PUBLIC    CODE     ---       ?C?FPADD
      00FF00A1H   PUBLIC    CODE     ---       ?C?FPSUB

      ---         MODULE    ---      ---       ?C?FPMUL
      00FF015CH   PUBLIC    CODE     ---       ?C?FPMUL

      ---         MODULE    ---      ---       ?C?FPDIV
      00FF01FCH   PUBLIC    CODE     ---       ?C?FPDIV

      ---         MODULE    ---      ---       ?C?FPCMP
      00FF027FH   PUBLIC    CODE     ---       ?C?FPCMP
      00FF027DH   PUBLIC    CODE     ---       ?C?FPCMP3

      ---         MODULE    ---      ---       ?C?FCAST
      00FF02CDH   PUBLIC    CODE     NEAR LAB  ?C?FCASTC
      00FF02C8H   PUBLIC    CODE     NEAR LAB  ?C?FCASTI
      00FF02C3H   PUBLIC    CODE     NEAR LAB  ?C?FCASTL

      ---         MODULE    ---      ---       ?C?CASTF
      00FF0300H   PUBLIC    CODE     NEAR LAB  ?C?CASTF

      ---         MODULE    ---      ---       SPRINTF
      000003C3H   PUBLIC    EDATA    ---       ?SPRINTF?BYTE
      00FF033DH   PUBLIC    CODE     NEAR LAB  SPRINTF

      ---         MODULE    ---      ---       EXP?_
      00FF0396H   PUBLIC    CODE     ---       EXP?_

      ---         MODULE    ---      ---       SQRT?_
L251 LINKER/LOCATER V4.66.93.0                                                        06/13/2023  16:02:14  PAGE 22


      00FF03F9H   PUBLIC    CODE     ---       SQRT?_

      ---         MODULE    ---      ---       ?C?FPGETOPN
      00FF0489H   PUBLIC    CODE     ---       ?C?FPGETOPN2
      00FF04C6H   PUBLIC    CODE     ---       ?C?FPNANRESULT
      00FF04CEH   PUBLIC    CODE     ---       ?C?FPOVERFLOW
      00FF04A2H   PUBLIC    CODE     ---       ?C?FPRESULT
      00FF04B8H   PUBLIC    CODE     ---       ?C?FPRESULT2
      00FF04CBH   PUBLIC    CODE     ---       ?C?FPUNDERFLOW

      ---         MODULE    ---      ---       ?C?PRNFMT
      00FF0507H   PUBLIC    CODE     ---       ?C?PRNFMT

      ---         MODULE    ---      ---       ?C?FPSERIES
      00FF0916H   PUBLIC    CODE     ---       ?C?FP2SERIES
      00FF091FH   PUBLIC    CODE     ---       ?C?FPSERIES

      ---         MODULE    ---      ---       ?C?FPCONVERT
      00FF0951H   PUBLIC    CODE     ---       ?C?FPCONVERT
      00FF0A09H   PUBLIC    CODE     ---       ?C?FPROUND

      ---         MODULE    ---      ---       ?C?FTNPWR
      00FF0A7CH   PUBLIC    CODE     ---       ?C?FTNPWR

      ---         MODULE    ---      ---       ?C_START
      00FF0000H   PUBLIC    CODE     ---       ?C?STARTUP
      00FF0000H   PUBLIC    CODE     ---       ?C_STARTUP

      ---         MODULE    ---      ---       ?C?INITEDATA
      00FF2389H   PUBLIC    CODE     ---       ?C?INITEDATA

      ---         MODULE    ---      ---       ?C?ULDIV
      00FF0AB5H   PUBLIC    CODE     NEAR LAB  ?C?ULDIV
      00FF0AB3H   PUBLIC    CODE     NEAR LAB  ?C?ULIDIV

      ---         MODULE    ---      ---       ?C?BMOVENP
      00FF0B08H   PUBLIC    CODE     ---       ?C?BMOVENP
      00FF0B06H   PUBLIC    CODE     ---       ?C?BMOVENP8

      ---         MODULE    ---      ---       ATOI
      00FF1DE2H   PUBLIC    CODE     ---       atoi?_

      ---         MODULE    ---      ---       memcmp
      00FF2507H   PUBLIC    CODE     ---       memcmp?_

      ---         MODULE    ---      ---       memcpy
      00FF258BH   PUBLIC    CODE     ---       memcpy?_

      ---         MODULE    ---      ---       memset
      00FF2630H   PUBLIC    CODE     ---       memset?_

      ---         MODULE    ---      ---       ?C?INITEDATA_END
      00FF28CDH   PUBLIC    HCONST   WORD      ?C?INITEDATA_END

      ---         MODULE    ---      ---       ISDIGIT
      00FF2741H   PUBLIC    CODE     ---       isdigit?_

      ---         MODULE    ---      ---       ISSPACE
      00FF2708H   PUBLIC    CODE     ---       isspace?_

Program Size: data=8.1 edata+hdata=1581 xdata=0 const=354 code=10122
L251 RUN COMPLETE.  0 WARNING(S),  0 ERROR(S)
