L251 LINKER/LOCATER V4.66.93.0                                                          03/18/2024  10:00:13  PAGE 1


L251 LINKER/LOCATER V4.66.93.0, INVOKED BY:
D:\KEILMDK\C251\BIN\L251.EXE .\obj\CalcDoseRate.obj, .\obj\CMD.obj, .\obj\flash.obj, .\obj\i2c.obj, .\obj\mcp4725.obj, .
>> \obj\Sensor.obj, .\obj\system.obj, .\obj\uart.obj, .\obj\main.obj TO .\obj\PileCore PRINT (.\obj\PileCore.map) CASE R
>> EMOVEUNUSED CLASSES (EDATA (0X0-0XFFF), HDATA (0X0-0XFFF))


CPU MODE:     251 SOURCE MODE
INTR FRAME:   2 BYTES SAVED ON INTERRUPT
MEMORY MODEL: XSMALL WITH FLOATING POINT ARITHMETIC


INPUT MODULES INCLUDED:
  .\obj\CalcDoseRate.obj (CalcDoseRate)
         COMMENT TYPE 0: C251 V5.60.0
  .\obj\CMD.obj (CMD)
         COMMENT TYPE 0: C251 V5.60.0
  .\obj\flash.obj (flash)
         COMMENT TYPE 0: C251 V5.60.0
  .\obj\i2c.obj (i2c)
         COMMENT TYPE 0: C251 V5.60.0
  .\obj\mcp4725.obj (mcp4725)
         COMMENT TYPE 0: C251 V5.60.0
  .\obj\Sensor.obj (Sensor)
         COMMENT TYPE 0: C251 V5.60.0
  .\obj\system.obj (system)
         COMMENT TYPE 0: C251 V5.60.0
  .\obj\uart.obj (uart)
         COMMENT TYPE 0: C251 V5.60.0
  .\obj\main.obj (main)
         COMMENT TYPE 0: C251 V5.60.0
  D:\KEILMDK\C251\LIB\C2SFPXS.LIB (?C?FPADD)
         COMMENT TYPE 0: A251 V4.69.6.0
  D:\KEILMDK\C251\LIB\C2SFPXS.LIB (?C?FPMUL)
         COMMENT TYPE 0: A251 V4.69.6.0
  D:\KEILMDK\C251\LIB\C2SFPXS.LIB (?C?FPDIV)
         COMMENT TYPE 0: A251 V4.69.6.0
  D:\KEILMDK\C251\LIB\C2SFPXS.LIB (?C?FPCMP)
         COMMENT TYPE 0: A251 V4.69.6.0
  D:\KEILMDK\C251\LIB\C2SFPXS.LIB (?C?FCAST)
         COMMENT TYPE 0: A251 V4.69.6.0
  D:\KEILMDK\C251\LIB\C2SFPXS.LIB (?C?CASTF)
         COMMENT TYPE 0: A251 V4.69.6.0
  D:\KEILMDK\C251\LIB\C2SFPXS.LIB (SPRINTF)
         COMMENT TYPE 0: A251 V4.69.6.0
  D:\KEILMDK\C251\LIB\C2SFPXS.LIB (SQRT?_)
         COMMENT TYPE 0: A251 V4.69.6.0
  D:\KEILMDK\C251\LIB\C2SFPXS.LIB (?C?FPGETOPN)
         COMMENT TYPE 0: A251 V4.69.6.0
  D:\KEILMDK\C251\LIB\C2SFPXS.LIB (?C?PRNFMT)
         COMMENT TYPE 0: A251 V4.69.6.0
  D:\KEILMDK\C251\LIB\C2SFPXS.LIB (?C?FPCONVERT)
         COMMENT TYPE 0: A251 V4.69.6.0
  D:\KEILMDK\C251\LIB\C2SFPXS.LIB (?C?FTNPWR)
         COMMENT TYPE 0: A251 V4.69.6.0
  D:\KEILMDK\C251\LIB\C2SXS.LIB (?C_START)
         COMMENT TYPE 0: A251 V4.69.6.0
  D:\KEILMDK\C251\LIB\C2SXS.LIB (?C?INITEDATA)
         COMMENT TYPE 0: A251 V4.69.6.0
  D:\KEILMDK\C251\LIB\C2SXS.LIB (?C?ULDIV)
         COMMENT TYPE 0: A251 V4.69.6.0
  D:\KEILMDK\C251\LIB\C2SXS.LIB (?C?BMOVENP)
         COMMENT TYPE 0: A251 V4.69.6.0
  D:\KEILMDK\C251\LIB\C2SXS.LIB (ATOI)
         COMMENT TYPE 0: C251 V5.58.7
  D:\KEILMDK\C251\LIB\C2SXS.LIB (memcmp)
         COMMENT TYPE 0: C251 V5.58.7
L251 LINKER/LOCATER V4.66.93.0                                                        03/18/2024  10:00:13  PAGE 2


  D:\KEILMDK\C251\LIB\C2SXS.LIB (memcpy)
         COMMENT TYPE 0: C251 V5.58.7
  D:\KEILMDK\C251\LIB\C2SXS.LIB (memset)
         COMMENT TYPE 0: C251 V5.58.7
  D:\KEILMDK\C251\LIB\C2SXS.LIB (?C?INITEDATA_END)
         COMMENT TYPE 0: A251 V4.69.6.0
  D:\KEILMDK\C251\LIB\C2SXS.LIB (ISDIGIT)
         COMMENT TYPE 0: C251 V5.58.7
  D:\KEILMDK\C251\LIB\C2SXS.LIB (ISSPACE)
         COMMENT TYPE 0: C251 V5.58.7


ACTIVE MEMORY CLASSES OF MODULE:  .\obj\PileCore (CalcDoseRate)

BASE        START       END         USED      MEMORY CLASS
==========================================================
000000H     000000H     000FFFH     000649H   EDATA
000000H     000000H     000FFFH               HDATA
FF0000H     FF0000H     FFFFFFH     0026D3H   CODE
000000H     FF0000H     FFFFFFH     000162H   HCONST
000020H.0   000020H.0   00002FH.7   000000H.1 BIT
FF0000H     FF0000H     FFFFFFH     000004H   CONST
000000H     000000H     00007FH     000008H   DATA


MEMORY MAP OF MODULE:  .\obj\PileCore (CalcDoseRate)


START     STOP      LENGTH    ALIGN  RELOC    MEMORY CLASS   SEGMENT NAME
=========================================================================
000000H   000007H   000008H   ---    AT..     DATA           "REG BANK 0"
000008H   00001FH   000018H   BYTE   UNIT     EDATA          ?ED?ACK_CMD_W?CMD
000020H.0 000020H.0 000000H.1 BIT    UNIT     BIT            ?BI?UART
000020H.1 000020H   000000H.7 ---    ---      **GAP**
000021H   000140H   000120H   BYTE   UNIT     EDATA          ?ED?CALCDOSERATE
000141H   00020CH   0000CCH   BYTE   UNIT     EDATA          ?ED?UART
00020DH   0002BCH   0000B0H   BYTE   UNIT     EDATA          ?ED?MAIN
0002BDH   00032AH   00006EH   BYTE   UNIT     EDATA          ?ED?CMD
00032BH   00036AH   000040H   BYTE   UNIT     EDATA          ?ED?ACK_CMD_N?CMD
00036BH   0003A6H   00003CH   BYTE   UNIT     EDATA          ?ED?ACK_CMD_J?CMD
0003A7H   0003CEH   000028H   BYTE   UNIT     EDATA          _EDATA_GROUP_
0003CFH   0003EBH   00001DH   BYTE   UNIT     EDATA          ?ED?SENSOR
0003ECH   000407H   00001CH   BYTE   UNIT     EDATA          ?ED?ACK_CMD_B?CMD
000408H   000420H   000019H   BYTE   UNIT     EDATA          ?ED?ACK_CMD_V?CMD
000421H   000438H   000018H   BYTE   UNIT     EDATA          ?ED?ACK_CMD_F?CMD
000439H   00044CH   000014H   BYTE   UNIT     EDATA          ?ED?CPSTOUSV_H?CALCDOSERATE
00044DH   000460H   000014H   BYTE   UNIT     EDATA          ?ED?SMOTHCPSCALCRATE?CALCDOSERATE
000461H   000474H   000014H   BYTE   UNIT     EDATA          ?ED?ACK_CMD_R?CMD
000475H   000488H   000014H   BYTE   UNIT     EDATA          ?ED?MCP4725_OUTVOL?MCP4725
000489H   00049AH   000012H   BYTE   UNIT     EDATA          ?ED?EEPROM_WRITE?FLASH
00049BH   0004A7H   00000DH   BYTE   UNIT     EDATA          ?ED?FLOATTOSMALL?CMD
0004A8H   0004B4H   00000DH   BYTE   UNIT     EDATA          ?ED?DWORDTOSMALL?CMD
0004B5H   0004C1H   00000DH   BYTE   UNIT     EDATA          ?ED?DATAPRO?CMD
0004C2H   0004CEH   00000DH   BYTE   UNIT     EDATA          ?ED?ACK_CMD_P?CMD
0004CFH   0004D8H   00000AH   BYTE   UNIT     EDATA          ?ED?CHECKSUM?CMD
0004D9H   0004E2H   00000AH   BYTE   UNIT     EDATA          ?ED?EEPROM_READ?FLASH
0004E3H   0004EAH   000008H   BYTE   UNIT     EDATA          ?ED?SENDDATA?CMD
0004EBH   0004F2H   000008H   BYTE   UNIT     EDATA          ?ED?SETCS?CMD
0004F3H   0004FAH   000008H   BYTE   UNIT     EDATA          ?ED?CAPTURESENSORPLUSECOUNTER?SENSOR
0004FBH   000502H   000008H   BYTE   UNIT     EDATA          ?ED?SYSTEM
000503H   000509H   000007H   BYTE   UNIT     EDATA          ?ED?WORDTOSMALL?CMD
00050AH   00050FH   000006H   BYTE   UNIT     EDATA          ?ED?GETHIS?CALCDOSERATE
000510H   000515H   000006H   BYTE   UNIT     EDATA          ?ED?CPSFILTER?CALCDOSERATE
000516H   00051BH   000006H   BYTE   UNIT     EDATA          ?ED?UART_SEND?UART
00051CH   000520H   000005H   BYTE   UNIT     EDATA          ?ED?PUSHCPS?CALCDOSERATE
L251 LINKER/LOCATER V4.66.93.0                                                        03/18/2024  10:00:13  PAGE 3


000521H   000525H   000005H   BYTE   UNIT     EDATA          ?ED?COUNTERPH?CALCDOSERATE
000526H   000529H   000004H   BYTE   UNIT     EDATA          ?ED?ADDCOUNTER?CALCDOSERATE
00052AH   00052DH   000004H   BYTE   UNIT     EDATA          ?ED?GETPARA?CMD
00052EH   000531H   000004H   BYTE   UNIT     EDATA          ?ED?READCS?CMD
000532H   000535H   000004H   BYTE   UNIT     EDATA          ?ED?EEPROM_SECTORERASE?FLASH
000536H   000539H   000004H   BYTE   UNIT     EDATA          ?ED?USELOWPARAM?SENSOR
00053AH   00053DH   000004H   BYTE   UNIT     EDATA          ?ED?CALCALARMSTATE?SENSOR
00053EH   000541H   000004H   BYTE   UNIT     EDATA          ?ED?GETCOUNTER?SYSTEM
000542H   000545H   000004H   BYTE   UNIT     EDATA          ?ED?DELAY_MS?MAIN
000546H   000547H   000002H   BYTE   UNIT     EDATA          ?ED?RESVCPS?CALCDOSERATE
000548H   000549H   000002H   BYTE   UNIT     EDATA          ?ED?CHECKAPP?FLASH
00054AH   00054BH   000002H   BYTE   UNIT     EDATA          ?ED?TIMERTASK?MAIN
00054CH   00054CH   000001H   BYTE   UNIT     EDATA          ?ED?INITARR?CALCDOSERATE
00054DH   00054DH   000001H   BYTE   UNIT     EDATA          ?ED?ACK_CMD_H?CMD
00054EH   00054EH   000001H   BYTE   UNIT     EDATA          ?ED?I2C
00054FH   00054FH   000001H   BYTE   UNIT     EDATA          ?ED?GETSENSORTYPE?SENSOR
000550H   000550H   000001H   BYTE   UNIT     EDATA          ?ED?PUTCHAR?UART
000551H   000551H   000001H   BYTE   UNIT     EDATA          ?ED?DELAY_US?MAIN
000552H   000651H   000100H   BYTE   UNIT     EDATA          ?STACK
000652H   FEFFFFH   FEF9AEH   ---    ---      **GAP**
FF0000H   FF0002H   000003H   ---    OFFS..   CODE           ?CO?start251?4
FF0003H   FF000AH   000008H   BYTE   INSEG    CODE           ?PR?ADDCOUNTER?CALCDOSERATE
FF000BH   FF000DH   000003H   ---    OFFS..   CODE           ?PR?IV?1
FF000EH   FF0022H   000015H   BYTE   INSEG    CODE           ?PR?ALARMCONFIRM?CMD
FF0023H   FF0025H   000003H   ---    OFFS..   CODE           ?PR?IV?4
FF0026H   FF0095H   000070H   BYTE   INSEG    CODE           ?PR?ACK_CMD_J?CMD
FF0096H   FF0099H   000004H   BYTE   INSEG    CODE           ?PR?SENSORMEASUREBEGIN?SENSOR
FF009AH   FF009AH   000001H   ---    ---      **GAP**
FF009BH   FF009DH   000003H   ---    OFFS..   CODE           ?PR?IV?19
FF009EH   FF0A61H   0009C4H   BYTE   UNIT     CODE           ?C?LIB_CODE
FF0A62H   FF0DDCH   00037BH   BYTE   INSEG    CODE           ?PR?MCP4725_OUTVOL?MCP4725
FF0DDDH   FF108DH   0002B1H   BYTE   INSEG    CODE           ?PR?CALCALARMSTATE?SENSOR
FF108EH   FF12EBH   00025EH   BYTE   INSEG    CODE           ?PR?CPSFILTER?CALCDOSERATE
FF12ECH   FF1509H   00021EH   BYTE   INSEG    CODE           ?PR?DATAPRO?CMD
FF150AH   FF161EH   000115H   BYTE   INSEG    CODE           ?PR?EEPROM_WRITE?FLASH
FF161FH   FF172FH   000111H   BYTE   INSEG    CODE           ?PR?COUNTERPH?CALCDOSERATE
FF1730H   FF1824H   0000F5H   BYTE   INSEG    CODE           ?PR?SENDDATA?CMD
FF1825H   FF18F7H   0000D3H   BYTE   INSEG    CODE           ?PR?INITPARAM?MAIN
FF18F8H   FF19C4H   0000CDH   BYTE   INSEG    CODE           ?PR?TIMERTASK?MAIN
FF19C5H   FF1A5DH   000099H   BYTE   INSEG    CODE           ?PR?CPSTOUSV_H?CALCDOSERATE
FF1A5EH   FF1AF0H   000093H   BYTE   INSEG    CODE           ?PR?CAPTURESENSORPLUSECOUNTER?SENSOR
FF1AF1H   FF1B7FH   00008FH   BYTE   INSEG    CODE           ?PR?PUSHCPS?CALCDOSERATE
FF1B80H   FF1C06H   000087H   BYTE   INSEG    CODE           ?PR?ACK_CMD_N?CMD
FF1C07H   FF1C8AH   000084H   BYTE   INSEG    CODE           ?PR?SMOTHCPSCALCRATE?CALCDOSERATE
FF1C8BH   FF1D09H   00007FH   BYTE   INSEG    CODE           ?PR?ATOI?_?ATOI
FF1D0AH   FF1D85H   00007CH   BYTE   INSEG    CODE           ?PR?ACK_CMD_W?CMD
FF1D86H   FF1DF5H   000070H   BYTE   INSEG    CODE           ?PR?MAIN?MAIN
FF1DF6H   FF1E61H   00006CH   BYTE   INSEG    CODE           ?PR?EEPROM_READ?FLASH
FF1E62H   FF1EC7H   000066H   BYTE   INSEG    CODE           ?PR?ACK_CMD_B?CMD
FF1EC8H   FF1F26H   00005FH   BYTE   INSEG    CODE           ?PR?FLOATTOSMALL?CMD
FF1F27H   FF1F85H   00005FH   BYTE   INSEG    CODE           ?PR?DWORDTOSMALL?CMD
FF1F86H   FF1FE1H   00005CH   BYTE   INSEG    CODE           ?PR?ACK_CMD_R?CMD
FF1FE2H   FF203BH   00005AH   BYTE   INSEG    CODE           ?PR?INITARR?CALCDOSERATE
FF203CH   FF208AH   00004FH   BYTE   INSEG    CODE           ?PR?ACK_CMD_F?CMD
FF208BH   FF20D7H   00004DH   BYTE   INSEG    CODE           ?PR?ACK_CMD_V?CMD
FF20D8H   FF2123H   00004CH   BYTE   INSEG    CODE           ?PR?CHECKSUM?CMD
FF2124H   FF216EH   00004BH   BYTE   INSEG    CODE           ?PR?UART1_ISR?UART
FF216FH   FF21B7H   000049H   BYTE   INSEG    CODE           ?PR?ACK_CMD_P?CMD
FF21B8H   FF21FEH   000047H   BYTE   INSEG    CODE           ?PR?DELAY_MS?MAIN
FF21FFH   FF2244H   000046H   BYTE   INSEG    CODE           ?PR?UART_SEND?UART
FF2245H   FF2289H   000045H   BYTE   INSEG    CODE           ?PR?CHECKAPP?FLASH
FF228AH   FF229CH   000013H   BYTE   UNIT     CODE           ?C_C51STARTUP
FF229DH   FF22C5H   000029H   BYTE   UNIT     CODE           ?C_C51STARTUP?2
FF22C6H   FF22C8H   000003H   BYTE   UNIT     CODE           ?C_C51STARTUP?3
FF22C9H   FF2304H   00003CH   BYTE   INSEG    CODE           ?PR?UART1_INIT?UART
L251 LINKER/LOCATER V4.66.93.0                                                        03/18/2024  10:00:13  PAGE 4


FF2305H   FF233FH   00003BH   BYTE   INSEG    CODE           ?PR?WRITEPARA?CMD
FF2340H   FF2379H   00003AH   BYTE   INSEG    CODE           ?PR?GETPARA?CMD
FF237AH   FF23B2H   000039H   BYTE   INSEG    CODE           ?PR?IOINIT?MAIN
FF23B3H   FF23E6H   000034H   BYTE   INSEG    CODE           ?PR?USELOWPARAM?SENSOR
FF23E7H   FF2418H   000032H   BYTE   INSEG    CODE           ?PR?SENSORINIT?SENSOR
FF2419H   FF2447H   00002FH   BYTE   INSEG    CODE           ?PR?SETCS?CMD
FF2448H   FF2476H   00002FH   BYTE   INSEG    CODE           ?PR?MEMCMP?_?MEMCMP
FF2477H   FF24A3H   00002DH   BYTE   INSEG    CODE           ?PR?EEPROM_SECTORERASE?FLASH
FF24A4H   FF24CBH   000028H   BYTE   INSEG    CODE           ?PR?SYSINIT?SYSTEM
FF24CCH   FF24F0H   000025H   BYTE   INSEG    CODE           ?PR?MEMCPY?_?MEMCPY
FF24F1H   FF2514H   000024H   BYTE   INSEG    CODE           ?PR?TIMER0_ISR?SYSTEM
FF2515H   FF2535H   000021H   BYTE   INSEG    CODE           ?PR?REFRESHPARAM?SENSOR
FF2536H   FF2556H   000021H   BYTE   INSEG    CODE           ?PR?RS485HND?MAIN
FF2557H   FF2574H   00001EH   BYTE   INSEG    CODE           ?PR?TIMER0_INIT?SYSTEM
FF2575H   FF2591H   00001DH   BYTE   INSEG    CODE           ?PR?CLEARCOUNTER?CALCDOSERATE
FF2592H   FF25ABH   00001AH   BYTE   INSEG    CODE           ?PR?MEMSET?_?MEMSET
FF25ACH   FF25C4H   000019H   BYTE   INSEG    CODE           ?PR?ACK_CMD_H?CMD
FF25C5H   FF25DDH   000019H   BYTE   INSEG    CODE           ?PR?DELAY_US?MAIN
FF25DEH   FF25F5H   000018H   BYTE   INSEG    CODE           ?PR?READCS?CMD
FF25F6H   FF260DH   000018H   BYTE   INSEG    CODE           ?PR?EEPROM_TRIG?FLASH
FF260EH   FF2624H   000017H   BYTE   INSEG    CODE           ?PR?ERROR?MAIN
FF2625H   FF263AH   000016H   BYTE   INSEG    CODE           ?PR?DISABLEEEPROM?FLASH
FF263BH   FF2650H   000016H   BYTE   INSEG    CODE           ?PR?TIMER3_ISR?SYSTEM
FF2651H   FF2664H   000014H   BYTE   INSEG    CODE           ?PR?ISSPACE?_?ISSPACE
FF2665H   FF2677H   000013H   BYTE   INSEG    CODE           ?PR?GETCOUNTER?SYSTEM
FF2678H   FF2689H   000012H   BYTE   INSEG    CODE           ?PR?CLEARRS485BUF?UART
FF268AH   FF2699H   000010H   BYTE   INSEG    CODE           ?PR?ISDIGIT?_?ISDIGIT
FF269AH   FF26A8H   00000FH   BYTE   INSEG    CODE           ?PR?TIMER3_INIT?SYSTEM
FF26A9H   FF26B5H   00000DH   BYTE   INSEG    CODE           ?PR?ACK_CMD_M?CMD
FF26B6H   FF26BFH   00000AH   BYTE   INSEG    CODE           ?PR?SAVEPARAM?CMD
FF26C0H   FF26C9H   00000AH   BYTE   INSEG    CODE           ?PR?ACK_CMD_C?CMD
FF26CAH   FF26D3H   00000AH   BYTE   INSEG    CODE           ?PR?ACK_CMD_T?CMD
FF26D4H   FF26D7H   000004H   BYTE   UNIT     CONST          ?CO?PRINTF
FF26D8H   FF281BH   000144H   BYTE   UNIT     HCONST         ?C_INITEDATA
FF281CH   FF2829H   00000EH   BYTE   UNIT     HCONST         ?HC?CMD
FF282AH   FF2834H   00000BH   BYTE   UNIT     HCONST         ?HC?MAIN
FF2835H   FF2839H   000005H   BYTE   UNIT     HCONST         ?HC?MCP4725

* * * * * * * * *   R E M O V E D     S E G M E N T S   * * * * * * * *
   *DEL*:           000143H   BYTE   INSEG    CODE           ?PR?GETHIS?CALCDOSERATE
   *DEL*:           000134H   BYTE   INSEG    CODE           ?PR?RESVCPS?CALCDOSERATE
   *DEL*:           000047H   BYTE   INSEG    CODE           ?PR?WORDTOSMALL?CMD
   *DEL*:           00001FH   BYTE   INSEG    CODE           ?PR?GETSENSORTYPE?SENSOR
   *DEL*:           000005H   BYTE   INSEG    CODE           ?PR?GET_LOW_SMOOTH_COUNTER?SENSOR
   *DEL*:           000005H   BYTE   INSEG    CODE           ?PR?GET_LOW_COUNTER?SENSOR
   *DEL*:           000017H   BYTE   INSEG    CODE           ?PR?TIMER1_INIT?SYSTEM
   *DEL*:           000011H   BYTE   INSEG    CODE           ?PR?PUTCHAR?UART



OVERLAY MAP OF MODULE:   .\obj\PileCore (CalcDoseRate)


FUNCTION/MODULE                       EDATA_GROUP
--> CALLED FUNCTION/MODULE            START  STOP
=================================================
Timer0_Isr/system                     ----- -----

*** NEW ROOT ************************

Timer3_Isr/system                     ----- -----

*** NEW ROOT ************************

UART1_ISR/uart                        ----- -----
L251 LINKER/LOCATER V4.66.93.0                                                        03/18/2024  10:00:13  PAGE 5



*** NEW ROOT ************************

?C_C51STARTUP                         ----- -----

*** NEW ROOT ************************

?C_C51STARTUP?3                       ----- -----
  +--> main/main

main/main                             ----- -----
  +--> SysInit/system
  +--> IoInit/main
  +--> checkApp/flash
  +--> Timer0_Init/system
  +--> Timer3_Init/system
  +--> SensorInit/Sensor
  +--> Uart1_Init/uart
  +--> ClearRs485Buf/uart
  +--> delay_ms/main
  +--> GetPara/CMD
  +--> memcpy?_/memcpy
  +--> MCP4725_OutVol/mcp4725
  +--> ClearCounter/CalcDoseRate
  +--> SensorMeasureBegin/Sensor
  +--> TimerTask/main
  +--> CaptureSensorPluseCounter/Sensor
  +--> Rs485Hnd/main

SysInit/system                        ----- -----

IoInit/main                           ----- -----

checkApp/flash                        ----- -----
  +--> EEPROM_read/flash
  +--> EEPROM_write/flash

EEPROM_read/flash                     ----- -----
  +--> EEPROM_Trig/flash
  +--> DisableEEPROM/flash

EEPROM_Trig/flash                     ----- -----

DisableEEPROM/flash                   ----- -----

EEPROM_write/flash                    ----- -----
  +--> EEPROM_Trig/flash
  +--> DisableEEPROM/flash

Timer0_Init/system                    ----- -----

Timer3_Init/system                    ----- -----

SensorInit/Sensor                     ----- -----
  +--> InitArr/CalcDoseRate
  +--> RefreshParam/Sensor
  +--> SensorMeasureBegin/Sensor

InitArr/CalcDoseRate                  ----- -----
  +--> memset?_/memset

memset?_/memset                       ----- -----

RefreshParam/Sensor                   ----- -----

L251 LINKER/LOCATER V4.66.93.0                                                        03/18/2024  10:00:13  PAGE 6


SensorMeasureBegin/Sensor             ----- -----
  +--> GetCounter/system

GetCounter/system                     ----- -----

Uart1_Init/uart                       ----- -----

ClearRs485Buf/uart                    ----- -----
  +--> memset?_/memset

delay_ms/main                         ----- -----

GetPara/CMD                           ----- -----
  +--> EEPROM_read/flash
  +--> CheckSum/CMD
  +--> InitParam/main

CheckSum/CMD                          ----- -----

InitParam/main                        ----- -----
  +--> memset?_/memset
  +--> SPRINTF/SPRINTF
  +--> WritePara/CMD

SPRINTF/SPRINTF                       03A7H 03CEH
  +--> OUT/SPRINTF

OUT/SPRINTF                           ----- -----
  +--> PUTCH/SPRINTF

PUTCH/SPRINTF                         ----- -----

WritePara/CMD                         ----- -----
  +--> EEPROM_SectorErase/flash
  +--> CheckSum/CMD
  +--> EEPROM_write/flash
  +--> Error/main

EEPROM_SectorErase/flash              ----- -----
  +--> EEPROM_Trig/flash
  +--> DisableEEPROM/flash

Error/main                            ----- -----
  +--> delay_ms/main

memcpy?_/memcpy                       ----- -----

MCP4725_OutVol/mcp4725                ----- -----
  +--> memcpy?_/memcpy
  +--> atoi?_/ATOI
  +--> ?C?ULIDIV/?C?ULDIV
  +--> delay_us/main

atoi?_/ATOI                           ----- -----
  +--> isspace?_/ISSPACE
  +--> isdigit?_/ISDIGIT

isspace?_/ISSPACE                     ----- -----

isdigit?_/ISDIGIT                     ----- -----

?C?ULIDIV/?C?ULDIV                    ----- -----

delay_us/main                         ----- -----

L251 LINKER/LOCATER V4.66.93.0                                                        03/18/2024  10:00:13  PAGE 7


ClearCounter/CalcDoseRate             ----- -----
  +--> memset?_/memset

TimerTask/main                        ----- -----

CaptureSensorPluseCounter/Sensor      ----- -----
  +--> GetCounter/system
  +--> SmothCpsCalcRate/CalcDoseRate
  +--> UseLowParam/Sensor
  +--> CalcAlarmState/Sensor

SmothCpsCalcRate/CalcDoseRate         ----- -----
  +--> CpsFilter/CalcDoseRate
  +--> CounterPH/CalcDoseRate
  +--> CpsToUsv_h/CalcDoseRate

CpsFilter/CalcDoseRate                ----- -----
  +--> ClearCounter/CalcDoseRate
  +--> AddCounter/CalcDoseRate

AddCounter/CalcDoseRate               ----- -----
  +--> PushCps/CalcDoseRate

PushCps/CalcDoseRate                  ----- -----

CounterPH/CalcDoseRate                ----- -----

CpsToUsv_h/CalcDoseRate               ----- -----

UseLowParam/Sensor                    ----- -----

CalcAlarmState/Sensor                 ----- -----

Rs485Hnd/main                         ----- -----
  +--> DataPro/CMD
  +--> ClearRs485Buf/uart

DataPro/CMD                           ----- -----
  +--> memcpy?_/memcpy
  +--> SPRINTF/SPRINTF
  +--> memcmp?_/memcmp
  +--> ACK_CMD_C/CMD
  +--> ACK_CMD_V/CMD
  +--> ACK_CMD_P/CMD
  +--> ACK_CMD_H/CMD
  +--> ACK_CMD_B/CMD
  +--> ACK_CMD_W/CMD
  +--> ACK_CMD_F/CMD
  +--> ACK_CMD_R/CMD
  +--> ACK_CMD_T/CMD
  +--> ACK_CMD_M/CMD
  +--> ACK_CMD_J/CMD
  +--> ACK_CMD_N/CMD
  +--> ReadCS/CMD
  +--> SetCS/CMD
  +--> AlarmConfirm/CMD

memcmp?_/memcmp                       ----- -----

ACK_CMD_C/CMD                         ----- -----
  +--> SendData/CMD

SendData/CMD                          ----- -----
  +--> memcpy?_/memcpy
  +--> SPRINTF/SPRINTF
L251 LINKER/LOCATER V4.66.93.0                                                        03/18/2024  10:00:13  PAGE 8


  +--> uart_send/uart

uart_send/uart                        ----- -----

ACK_CMD_V/CMD                         ----- -----
  +--> FloatToSmall/CMD
  +--> DwordToSmall/CMD
  +--> SendData/CMD

FloatToSmall/CMD                      ----- -----
  +--> memcpy?_/memcpy

DwordToSmall/CMD                      ----- -----
  +--> memcpy?_/memcpy

ACK_CMD_P/CMD                         ----- -----
  +--> SPRINTF/SPRINTF
  +--> SendData/CMD

ACK_CMD_H/CMD                         ----- -----
  +--> SendData/CMD
  +--> SaveParam/CMD

SaveParam/CMD                         ----- -----
  +--> WritePara/CMD

ACK_CMD_B/CMD                         ----- -----
  +--> memcpy?_/memcpy
  +--> FloatToSmall/CMD
  +--> SendData/CMD
  +--> SaveParam/CMD

ACK_CMD_W/CMD                         ----- -----
  +--> memcpy?_/memcpy
  +--> FloatToSmall/CMD
  +--> MCP4725_OutVol/mcp4725
  +--> SendData/CMD
  +--> SaveParam/CMD

ACK_CMD_F/CMD                         ----- -----
  +--> FloatToSmall/CMD
  +--> SendData/CMD

ACK_CMD_R/CMD                         ----- -----
  +--> FloatToSmall/CMD
  +--> memcpy?_/memcpy
  +--> SendData/CMD

ACK_CMD_T/CMD                         ----- -----
  +--> SendData/CMD

ACK_CMD_M/CMD                         ----- -----
  +--> SendData/CMD

ACK_CMD_J/CMD                         ----- -----
  +--> FloatToSmall/CMD
  +--> SendData/CMD

ACK_CMD_N/CMD                         ----- -----
  +--> memcpy?_/memcpy
  +--> FloatToSmall/CMD
  +--> SendData/CMD
  +--> SaveParam/CMD

ReadCS/CMD                            ----- -----
L251 LINKER/LOCATER V4.66.93.0                                                        03/18/2024  10:00:13  PAGE 9


  +--> FloatToSmall/CMD
  +--> SendData/CMD

SetCS/CMD                             ----- -----
  +--> memcpy?_/memcpy
  +--> FloatToSmall/CMD
  +--> SendData/CMD
  +--> SaveParam/CMD

AlarmConfirm/CMD                      ----- -----
  +--> SendData/CMD

*** NEW ROOT ************************

?C_C51STARTUP?2                       ----- -----



PUBLIC SYMBOLS OF MODULE:  .\obj\PileCore (CalcDoseRate)


      VALUE       CLASS    TYPE      PUBLIC SYMBOL NAME
      =================================================
      00FF0A3FH   CODE     ---       ?C?BMOVENP
      00FF0A3DH   CODE     ---       ?C?BMOVENP8
      00FF0300H   CODE     NEAR LAB  ?C?CASTF
      000000FFH   NUMBER   ---       ?C?CODESEG
      00FF02CDH   CODE     NEAR LAB  ?C?FCASTC
      00FF02C8H   CODE     NEAR LAB  ?C?FCASTI
      00FF02C3H   CODE     NEAR LAB  ?C?FCASTL
      00FF00A4H   CODE     ---       ?C?FPADD
      00FF027FH   CODE     ---       ?C?FPCMP
      00FF027DH   CODE     ---       ?C?FPCMP3
      00FF0888H   CODE     ---       ?C?FPCONVERT
      00FF01FCH   CODE     ---       ?C?FPDIV
      00FF03EDH   CODE     ---       ?C?FPGETOPN2
      00FF015CH   CODE     ---       ?C?FPMUL
      00FF042AH   CODE     ---       ?C?FPNANRESULT
      00FF0432H   CODE     ---       ?C?FPOVERFLOW
      00FF0406H   CODE     ---       ?C?FPRESULT
      00FF041CH   CODE     ---       ?C?FPRESULT2
      00FF0940H   CODE     ---       ?C?FPROUND
      00FF00A1H   CODE     ---       ?C?FPSUB
      00FF042FH   CODE     ---       ?C?FPUNDERFLOW
      00FF09B3H   CODE     ---       ?C?FTNPWR
      00FF229DH   CODE     ---       ?C?INITEDATA
      00FF281AH   HCONST   WORD      ?C?INITEDATA_END
      00FF046BH   CODE     ---       ?C?PRNFMT
      00FF0000H   CODE     ---       ?C?STARTUP
      00FF09ECH   CODE     NEAR LAB  ?C?ULDIV
      00FF09EAH   CODE     NEAR LAB  ?C?ULIDIV
      00000001H   NUMBER   ---       ?C?XDATASEG
      00FF0000H   CODE     ---       ?C_STARTUP
      000004D9H   EDATA    BYTE      ?EEPROM_read?BYTE
      00000489H   EDATA    BYTE      ?EEPROM_write?BYTE
      0000044DH   EDATA    BYTE      ?SmothCpsCalcRate?BYTE
      000003CFH   EDATA    ---       ?sprintf?BYTE
      00FF1E62H   CODE     ---       ACK_CMD_B
      00FF26C0H   CODE     ---       ACK_CMD_C
      00FF203CH   CODE     ---       ACK_CMD_F
      00FF25ACH   CODE     ---       ACK_CMD_H
      00FF0026H   CODE     ---       ACK_CMD_J
      00FF26A9H   CODE     ---       ACK_CMD_M
      00FF1B80H   CODE     ---       ACK_CMD_N
      00FF216FH   CODE     ---       ACK_CMD_P
L251 LINKER/LOCATER V4.66.93.0                                                        03/18/2024  10:00:13  PAGE 10


      00FF1F86H   CODE     ---       ACK_CMD_R
      00FF26CAH   CODE     ---       ACK_CMD_T
      00FF208BH   CODE     ---       ACK_CMD_V
      00FF1D0AH   CODE     ---       ACK_CMD_W
*SFR* 000000BCH   DATA     BYTE      ADC_CONTR
*SFR* 000000DEH   DATA     BYTE      ADCCFG
      00FF0003H   CODE     ---       AddCounter
      00FF000EH   CODE     ---       AlarmConfirm
      00FF1C8BH   CODE     ---       atoi?_
*SFR* 000000EFH   DATA     BYTE      AUXINTIF
*SFR* 0000008EH   DATA     BYTE      AUXR
*SFR* 00000097H   DATA     BYTE      AUXR2
      00000020H.0 BIT      BIT       B_TX1_Busy
      00FF0DDDH   CODE     ---       CalcAlarmState
*SFR* 000000F1H   DATA     BYTE      CANICR
      00FF1A5EH   CODE     ---       CaptureSensorPluseCounter
      00FF2245H   CODE     ---       checkApp
      00FF20D8H   CODE     ---       CheckSum
      00FF2575H   CODE     ---       ClearCounter
      00FF2678H   CODE     ---       ClearRs485Buf
*SFR* 000000E6H   DATA     BYTE      CMPCR1
*SFR* 000000E7H   DATA     BYTE      CMPCR2
      00000027H   EDATA    ---       CpsArr
      000003DBH   EDATA    BYTE      CPSFlag
      00FF12ECH   CODE     ---       DataPro
      00FF21B8H   CODE     ---       delay_ms
      00FF25C5H   CODE     ---       delay_us
      00FF2625H   CODE     ---       DisableEEPROM
      00FF1F27H   CODE     ---       DwordToSmall
*SFR* 000000A8H.7 DATA     BIT       EA
*SFR* 000000BAH.7 DATA     BIT       EAXFR
      00FF1DF6H   CODE     ---       EEPROM_read
      00FF2477H   CODE     ---       EEPROM_SectorErase
      00FF25F6H   CODE     ---       EEPROM_Trig
      00FF150AH   CODE     ---       EEPROM_write
      00FF260EH   CODE     ---       Error
*SFR* 000000A8H.4 DATA     BIT       ES
*SFR* 000000A8H.1 DATA     BIT       ET0
*SFR* 000000A8H.3 DATA     BIT       ET1
*SFR* 000000D0H.5 DATA     BIT       F0
      00FF1EC8H   CODE     ---       FloatToSmall
*DEL*:00000000H   CODE     ---       Get_Low_Counter
*DEL*:00000000H   CODE     ---       Get_Low_Smooth_Counter
      00FF2665H   CODE     ---       GetCounter
*DEL*:00000000H   CODE     ---       GetHis
      00FF2340H   CODE     ---       GetPara
*DEL*:00000000H   CODE     ---       GetSensorType
      000002BDH   EDATA    ---       gs_CMD
*SFR* 000000F6H   DATA     BYTE      IAP_ADDRE
*SFR* 000000C3H   DATA     BYTE      IAP_ADDRH
*SFR* 000000C4H   DATA     BYTE      IAP_ADDRL
*SFR* 000000C5H   DATA     BYTE      IAP_CMD
*SFR* 000000C7H   DATA     BYTE      IAP_CONTR
*SFR* 000000C2H   DATA     BYTE      IAP_DATA
*SFR* 000000F5H   DATA     BYTE      IAP_TPS
*SFR* 000000C6H   DATA     BYTE      IAP_TRIG
*SFR* 000000A8H   DATA     BYTE      IE
*SFR* 000000AFH   DATA     BYTE      IE2
      00FF1FE2H   CODE     ---       InitArr
      00FF1825H   CODE     ---       InitParam
*SFR* 0000008FH   DATA     BYTE      INTCLKO
      00FF237AH   CODE     ---       IoInit
*SFR* 000000B8H   DATA     BYTE      IP
*SFR* 000000B5H   DATA     BYTE      IP2
*SFR* 000000B6H   DATA     BYTE      IP2H
L251 LINKER/LOCATER V4.66.93.0                                                        03/18/2024  10:00:13  PAGE 11


*SFR* 000000DFH   DATA     BYTE      IP3
*SFR* 000000EEH   DATA     BYTE      IP3H
*SFR* 000000B7H   DATA     BYTE      IPH
*SFR* 0000009DH   DATA     BYTE      IRCBAND
      00FF268AH   CODE     ---       isdigit?_
      00FF2651H   CODE     ---       isspace?_
*SFR* 000000F9H   DATA     BYTE      LINICR
      00000502H   EDATA    BYTE      LowOverFlowFlag
      00FF1D86H   CODE     ---       main
      00FF0A62H   CODE     ---       MCP4725_OutVol
      00FF2448H   CODE     ---       memcmp?_
      00FF24CCH   CODE     ---       memcpy?_
      00FF2592H   CODE     ---       memset?_
*SFR* 00000080H   DATA     BYTE      P0
*SFR* 00000094H   DATA     BYTE      P0M0
*SFR* 00000093H   DATA     BYTE      P0M1
*SFR* 00000090H   DATA     BYTE      P1
*SFR* 00000092H   DATA     BYTE      P1M0
*SFR* 00000091H   DATA     BYTE      P1M1
*SFR* 000000A0H   DATA     BYTE      P2
      0000054EH   EDATA    BYTE      P2DIR
*SFR* 00000096H   DATA     BYTE      P2M0
*SFR* 00000095H   DATA     BYTE      P2M1
*SFR* 000000B0H   DATA     BYTE      P3
*SFR* 000000B2H   DATA     BYTE      P3M0
*SFR* 000000B1H   DATA     BYTE      P3M1
*SFR* 000000C0H   DATA     BYTE      P4
*SFR* 000000B4H   DATA     BYTE      P4M0
*SFR* 000000B3H   DATA     BYTE      P4M1
*SFR* 000000C8H   DATA     BYTE      P5
*SFR* 000000CAH   DATA     BYTE      P5M0
*SFR* 000000C9H   DATA     BYTE      P5M1
*SFR* 000000E8H   DATA     BYTE      P6
*SFR* 000000CCH   DATA     BYTE      P6M0
*SFR* 000000CBH   DATA     BYTE      P6M1
*SFR* 000000F8H   DATA     BYTE      P7
*SFR* 000000E2H   DATA     BYTE      P7M0
*SFR* 000000E1H   DATA     BYTE      P7M1
*SFR* 000000A2H   DATA     BYTE      P_SW1
*SFR* 000000BAH   DATA     BYTE      P_SW2
*SFR* 000000BBH   DATA     BYTE      P_SW3
      000003DCH   EDATA    FLOAT     parama
      000003E0H   EDATA    FLOAT     paramb
      000003E4H   EDATA    FLOAT     paramc
      000003E8H   EDATA    FLOAT     paramd
*SFR* 00000087H   DATA     BYTE      PCON
      000004FBH   EDATA    DWORD     PluseCnt
      000004FFH   EDATA    BYTE      PlusePortCnt
*SFR* 000000B8H.4 DATA     BIT       PS
*SFR* 000000B7H.4 DATA     BIT       PSH
*SFR* 000000D0H   DATA     BYTE      PSW
*SFR* 000000B8H.1 DATA     BIT       PT0
*SFR* 000000B7H.1 DATA     BIT       PT0H
      00FF1AF1H   CODE     ---       PushCps
*DEL*:00000000H   CODE     ---       putchar
      00FF25DEH   CODE     ---       ReadCS
      00FF2515H   CODE     ---       RefreshParam
*DEL*:00000000H   CODE     ---       ResvCps
*SFR* 00000098H.0 DATA     BIT       RI
      00FF2536H   CODE     ---       Rs485Hnd
*SFR* 000000FFH   DATA     BYTE      RSTCFG
      00000141H   EDATA    ---       RX1_Buffer
      0000020BH   EDATA    BYTE      RX1_Cnt
      00000209H   EDATA    WORD      Rx1_Timer
*SFR* 0000009AH   DATA     BYTE      S2CON
L251 LINKER/LOCATER V4.66.93.0                                                        03/18/2024  10:00:13  PAGE 12


*SFR* 000000ACH   DATA     BYTE      S3CON
*SFR* 000000FDH   DATA     BYTE      S4CON
      000002C2H   EDATA    ---       s_Head
      00FF26B6H   CODE     ---       SaveParam
*SFR* 00000099H   DATA     BYTE      SBUF
*SFR* 00000098H   DATA     BYTE      SCON
      000002C7H   EDATA    ---       sendbuf
      00FF1730H   CODE     ---       SendData
      00FF23E7H   CODE     ---       SensorInit
      00FF0096H   CODE     ---       SensorMeasureBegin
      00FF2419H   CODE     ---       SetCS
      00FF1C07H   CODE     ---       SmothCpsCalcRate
*SFR* 000000CEH   DATA     BYTE      SPCTL
      00FF033DH   CODE     NEAR LAB  sprintf
*SFR* 000000CDH   DATA     BYTE      SPSTAT
      00FF035DH   CODE     ---       sqrt?_
      00FF24A4H   CODE     ---       SysInit
      0000020DH   EDATA    ---       SysRunState
*SFR* 000000D4H   DATA     BYTE      T3H
*SFR* 000000D5H   DATA     BYTE      T3L
*SFR* 000000DDH.3 DATA     BIT       T3R
*SFR* 000000DDH   DATA     BYTE      T4T3M
*SFR* 00000088H   DATA     BYTE      TCON
*SFR* 00000088H.5 DATA     BIT       TF0
*SFR* 00000088H.7 DATA     BIT       TF1
*SFR* 0000008CH   DATA     BYTE      TH0
*SFR* 0000008DH   DATA     BYTE      TH1
*SFR* 00000098H.1 DATA     BIT       TI
      00FF2557H   CODE     ---       Timer0_Init
      00FF24F1H   CODE     ---       Timer0_Isr
      00000500H   EDATA    WORD      Timer0Cnt
*DEL*:00000000H   CODE     ---       Timer1_Init
      00FF269AH   CODE     ---       Timer3_Init
      00FF263BH   CODE     ---       Timer3_Isr
      00FF18F8H   CODE     ---       TimerTask
*SFR* 0000008AH   DATA     BYTE      TL0
*SFR* 0000008BH   DATA     BYTE      TL1
*SFR* 00000089H   DATA     BYTE      TMOD
*SFR* 00000088H.4 DATA     BIT       TR0
*SFR* 00000088H.6 DATA     BIT       TR1
      0000020CH   EDATA    BYTE      TX1_Cnt
      00FF22C9H   CODE     ---       Uart1_Init
      00FF2124H   CODE     ---       UART1_ISR
      00FF21FFH   CODE     ---       uart_send
*SFR* 000000F4H   DATA     BYTE      USBCON
      00FF23B3H   CODE     ---       UseLowParam
*SFR* 000000C1H   DATA     BYTE      WDT_CONTR
*DEL*:00000000H   CODE     ---       WordToSmall
      00FF2305H   CODE     ---       WritePara
*SFR* 000000E9H   DATA     BYTE      WTST



SYMBOL TABLE OF MODULE:  .\obj\PileCore (CalcDoseRate)

      VALUE       REP       CLASS    TYPE      SYMBOL NAME
      ====================================================
      ---         MODULE    ---      ---       CalcDoseRate
      00FF1C07H   PUBLIC    CODE     ---       SmothCpsCalcRate
      00FF1FE2H   PUBLIC    CODE     ---       InitArr
      00FF1AF1H   PUBLIC    CODE     ---       PushCps
      00FF2575H   PUBLIC    CODE     ---       ClearCounter
      00FF0003H   PUBLIC    CODE     ---       AddCounter
      00000027H   PUBLIC    EDATA    ---       CpsArr
      0000044DH   PUBLIC    EDATA    BYTE      ?SmothCpsCalcRate?BYTE
L251 LINKER/LOCATER V4.66.93.0                                                        03/18/2024  10:00:13  PAGE 13


      000000D0H   SFRSYM    DATA     BYTE      PSW
      0000009DH   SFRSYM    DATA     BYTE      IRCBAND
      00000097H   SFRSYM    DATA     BYTE      AUXR2
      000000EFH   SFRSYM    DATA     BYTE      AUXINTIF
      000000FDH   SFRSYM    DATA     BYTE      S4CON
      000000ACH   SFRSYM    DATA     BYTE      S3CON
      0000009AH   SFRSYM    DATA     BYTE      S2CON
      000000B7H   SFRSYM    DATA     BYTE      IPH
      000000CDH   SFRSYM    DATA     BYTE      SPSTAT
      000000DDH   SFRSYM    DATA     BYTE      T4T3M
      000000C1H   SFRSYM    DATA     BYTE      WDT_CONTR
      000000DFH   SFRSYM    DATA     BYTE      IP3
      000000F4H   SFRSYM    DATA     BYTE      USBCON
      000000B5H   SFRSYM    DATA     BYTE      IP2
      000000FFH   SFRSYM    DATA     BYTE      RSTCFG
      000000C7H   SFRSYM    DATA     BYTE      IAP_CONTR
      000000F9H   SFRSYM    DATA     BYTE      LINICR
      0000008EH   SFRSYM    DATA     BYTE      AUXR
      000000AFH   SFRSYM    DATA     BYTE      IE2
      00000088H   SFRSYM    DATA     BYTE      TCON
      00000089H   SFRSYM    DATA     BYTE      TMOD
      00000098H   SFRSYM    DATA     BYTE      SCON
      000000F1H   SFRSYM    DATA     BYTE      CANICR
      00000087H   SFRSYM    DATA     BYTE      PCON
      000000BCH   SFRSYM    DATA     BYTE      ADC_CONTR
      000000E7H   SFRSYM    DATA     BYTE      CMPCR2
      000000E6H   SFRSYM    DATA     BYTE      CMPCR1
      000000DEH   SFRSYM    DATA     BYTE      ADCCFG
      000000B8H   SFRSYM    DATA     BYTE      IP
      0000008FH   SFRSYM    DATA     BYTE      INTCLKO
      000000EEH   SFRSYM    DATA     BYTE      IP3H
      000000B6H   SFRSYM    DATA     BYTE      IP2H
      000000A8H   SFRSYM    DATA     BYTE      IE
      000000BBH   SFRSYM    DATA     BYTE      P_SW3
      000000BAH   SFRSYM    DATA     BYTE      P_SW2
      000000A2H   SFRSYM    DATA     BYTE      P_SW1
      000000CEH   SFRSYM    DATA     BYTE      SPCTL
      000000F8H   SFRSYM    DATA     BYTE      P7
      000000E8H   SFRSYM    DATA     BYTE      P6
      000000C8H   SFRSYM    DATA     BYTE      P5
      000000C0H   SFRSYM    DATA     BYTE      P4
      000000B0H   SFRSYM    DATA     BYTE      P3
      000000A0H   SFRSYM    DATA     BYTE      P2
      00000090H   SFRSYM    DATA     BYTE      P1
      00000080H   SFRSYM    DATA     BYTE      P0

      ---         MODULE    ---      ---       CMD
      00FF26B6H   PUBLIC    CODE     ---       SaveParam
      00FF1730H   PUBLIC    CODE     ---       SendData
      00FF2305H   PUBLIC    CODE     ---       WritePara
      00FF25DEH   PUBLIC    CODE     ---       ReadCS
      00FF20D8H   PUBLIC    CODE     ---       CheckSum
      00FF1E62H   PUBLIC    CODE     ---       ACK_CMD_B
      00FF2340H   PUBLIC    CODE     ---       GetPara
      00FF26C0H   PUBLIC    CODE     ---       ACK_CMD_C
      00FF203CH   PUBLIC    CODE     ---       ACK_CMD_F
      00FF25ACH   PUBLIC    CODE     ---       ACK_CMD_H
      00FF0026H   PUBLIC    CODE     ---       ACK_CMD_J
      00FF12ECH   PUBLIC    CODE     ---       DataPro
      00FF26A9H   PUBLIC    CODE     ---       ACK_CMD_M
      00FF1B80H   PUBLIC    CODE     ---       ACK_CMD_N
      00FF216FH   PUBLIC    CODE     ---       ACK_CMD_P
      00FF1F86H   PUBLIC    CODE     ---       ACK_CMD_R
      00FF26CAH   PUBLIC    CODE     ---       ACK_CMD_T
      00FF1EC8H   PUBLIC    CODE     ---       FloatToSmall
L251 LINKER/LOCATER V4.66.93.0                                                        03/18/2024  10:00:13  PAGE 14


      00FF208BH   PUBLIC    CODE     ---       ACK_CMD_V
      00FF1D0AH   PUBLIC    CODE     ---       ACK_CMD_W
      00FF000EH   PUBLIC    CODE     ---       AlarmConfirm
      00FF1F27H   PUBLIC    CODE     ---       DwordToSmall
      00FF2419H   PUBLIC    CODE     ---       SetCS
      000002BDH   PUBLIC    EDATA    ---       gs_CMD
      000002C2H   PUBLIC    EDATA    ---       s_Head
      000002C7H   PUBLIC    EDATA    ---       sendbuf
      000000D0H   SFRSYM    DATA     BYTE      PSW
      0000009DH   SFRSYM    DATA     BYTE      IRCBAND
      00000097H   SFRSYM    DATA     BYTE      AUXR2
      000000EFH   SFRSYM    DATA     BYTE      AUXINTIF
      000000FDH   SFRSYM    DATA     BYTE      S4CON
      000000ACH   SFRSYM    DATA     BYTE      S3CON
      0000009AH   SFRSYM    DATA     BYTE      S2CON
      000000B7H   SFRSYM    DATA     BYTE      IPH
      000000CDH   SFRSYM    DATA     BYTE      SPSTAT
      000000DDH   SFRSYM    DATA     BYTE      T4T3M
      000000C1H   SFRSYM    DATA     BYTE      WDT_CONTR
      000000DFH   SFRSYM    DATA     BYTE      IP3
      000000F4H   SFRSYM    DATA     BYTE      USBCON
      000000B5H   SFRSYM    DATA     BYTE      IP2
      000000FFH   SFRSYM    DATA     BYTE      RSTCFG
      000000C7H   SFRSYM    DATA     BYTE      IAP_CONTR
      000000F9H   SFRSYM    DATA     BYTE      LINICR
      0000008EH   SFRSYM    DATA     BYTE      AUXR
      000000AFH   SFRSYM    DATA     BYTE      IE2
      00000088H   SFRSYM    DATA     BYTE      TCON
      00000089H   SFRSYM    DATA     BYTE      TMOD
      00000098H   SFRSYM    DATA     BYTE      SCON
      000000F1H   SFRSYM    DATA     BYTE      CANICR
      00000087H   SFRSYM    DATA     BYTE      PCON
      000000BCH   SFRSYM    DATA     BYTE      ADC_CONTR
      000000E7H   SFRSYM    DATA     BYTE      CMPCR2
      000000E6H   SFRSYM    DATA     BYTE      CMPCR1
      000000DEH   SFRSYM    DATA     BYTE      ADCCFG
      000000B8H   SFRSYM    DATA     BYTE      IP
      0000008FH   SFRSYM    DATA     BYTE      INTCLKO
      000000EEH   SFRSYM    DATA     BYTE      IP3H
      000000B6H   SFRSYM    DATA     BYTE      IP2H
      000000A8H   SFRSYM    DATA     BYTE      IE
      000000BBH   SFRSYM    DATA     BYTE      P_SW3
      000000BAH   SFRSYM    DATA     BYTE      P_SW2
      000000A2H   SFRSYM    DATA     BYTE      P_SW1
      000000CEH   SFRSYM    DATA     BYTE      SPCTL
      000000F8H   SFRSYM    DATA     BYTE      P7
      000000A8H.7 SFRSYM    DATA     BIT       EA
      000000E8H   SFRSYM    DATA     BYTE      P6
      000000C8H   SFRSYM    DATA     BYTE      P5
      000000C0H   SFRSYM    DATA     BYTE      P4
      000000B0H   SFRSYM    DATA     BYTE      P3
      000000A0H   SFRSYM    DATA     BYTE      P2
      00000090H   SFRSYM    DATA     BYTE      P1
      00000080H   SFRSYM    DATA     BYTE      P0

      ---         MODULE    ---      ---       flash
      00FF2625H   PUBLIC    CODE     ---       DisableEEPROM
      00FF2477H   PUBLIC    CODE     ---       EEPROM_SectorErase
      00FF2245H   PUBLIC    CODE     ---       checkApp
      00FF25F6H   PUBLIC    CODE     ---       EEPROM_Trig
      00FF1DF6H   PUBLIC    CODE     ---       EEPROM_read
      00FF150AH   PUBLIC    CODE     ---       EEPROM_write
      000004D9H   PUBLIC    EDATA    BYTE      ?EEPROM_read?BYTE
      00000489H   PUBLIC    EDATA    BYTE      ?EEPROM_write?BYTE
      000000D0H   SFRSYM    DATA     BYTE      PSW
L251 LINKER/LOCATER V4.66.93.0                                                        03/18/2024  10:00:13  PAGE 15


      0000009DH   SFRSYM    DATA     BYTE      IRCBAND
      000000D0H.5 SFRSYM    DATA     BIT       F0
      00000097H   SFRSYM    DATA     BYTE      AUXR2
      000000C6H   SFRSYM    DATA     BYTE      IAP_TRIG
      000000EFH   SFRSYM    DATA     BYTE      AUXINTIF
      000000FDH   SFRSYM    DATA     BYTE      S4CON
      000000ACH   SFRSYM    DATA     BYTE      S3CON
      0000009AH   SFRSYM    DATA     BYTE      S2CON
      000000B7H   SFRSYM    DATA     BYTE      IPH
      000000CDH   SFRSYM    DATA     BYTE      SPSTAT
      000000DDH   SFRSYM    DATA     BYTE      T4T3M
      000000C1H   SFRSYM    DATA     BYTE      WDT_CONTR
      000000C2H   SFRSYM    DATA     BYTE      IAP_DATA
      000000DFH   SFRSYM    DATA     BYTE      IP3
      000000F4H   SFRSYM    DATA     BYTE      USBCON
      000000B5H   SFRSYM    DATA     BYTE      IP2
      000000FFH   SFRSYM    DATA     BYTE      RSTCFG
      000000C7H   SFRSYM    DATA     BYTE      IAP_CONTR
      000000F9H   SFRSYM    DATA     BYTE      LINICR
      0000008EH   SFRSYM    DATA     BYTE      AUXR
      000000AFH   SFRSYM    DATA     BYTE      IE2
      00000088H   SFRSYM    DATA     BYTE      TCON
      00000089H   SFRSYM    DATA     BYTE      TMOD
      00000098H   SFRSYM    DATA     BYTE      SCON
      000000F5H   SFRSYM    DATA     BYTE      IAP_TPS
      000000F1H   SFRSYM    DATA     BYTE      CANICR
      00000087H   SFRSYM    DATA     BYTE      PCON
      000000BCH   SFRSYM    DATA     BYTE      ADC_CONTR
      000000E7H   SFRSYM    DATA     BYTE      CMPCR2
      000000E6H   SFRSYM    DATA     BYTE      CMPCR1
      000000C4H   SFRSYM    DATA     BYTE      IAP_ADDRL
      000000C3H   SFRSYM    DATA     BYTE      IAP_ADDRH
      000000F6H   SFRSYM    DATA     BYTE      IAP_ADDRE
      000000DEH   SFRSYM    DATA     BYTE      ADCCFG
      000000B8H   SFRSYM    DATA     BYTE      IP
      0000008FH   SFRSYM    DATA     BYTE      INTCLKO
      000000EEH   SFRSYM    DATA     BYTE      IP3H
      000000B6H   SFRSYM    DATA     BYTE      IP2H
      000000C5H   SFRSYM    DATA     BYTE      IAP_CMD
      000000A8H   SFRSYM    DATA     BYTE      IE
      000000BBH   SFRSYM    DATA     BYTE      P_SW3
      000000BAH   SFRSYM    DATA     BYTE      P_SW2
      000000A2H   SFRSYM    DATA     BYTE      P_SW1
      000000CEH   SFRSYM    DATA     BYTE      SPCTL
      000000F8H   SFRSYM    DATA     BYTE      P7
      000000A8H.7 SFRSYM    DATA     BIT       EA
      000000E8H   SFRSYM    DATA     BYTE      P6
      000000C8H   SFRSYM    DATA     BYTE      P5
      000000C0H   SFRSYM    DATA     BYTE      P4
      000000B0H   SFRSYM    DATA     BYTE      P3
      000000A0H   SFRSYM    DATA     BYTE      P2
      00000090H   SFRSYM    DATA     BYTE      P1
      00000080H   SFRSYM    DATA     BYTE      P0

      ---         MODULE    ---      ---       i2c
      0000054EH   PUBLIC    EDATA    BYTE      P2DIR
      000000D0H   SFRSYM    DATA     BYTE      PSW
      0000009DH   SFRSYM    DATA     BYTE      IRCBAND
      00000097H   SFRSYM    DATA     BYTE      AUXR2
      000000EFH   SFRSYM    DATA     BYTE      AUXINTIF
      000000FDH   SFRSYM    DATA     BYTE      S4CON
      000000ACH   SFRSYM    DATA     BYTE      S3CON
      0000009AH   SFRSYM    DATA     BYTE      S2CON
      000000B7H   SFRSYM    DATA     BYTE      IPH
      000000CDH   SFRSYM    DATA     BYTE      SPSTAT
L251 LINKER/LOCATER V4.66.93.0                                                        03/18/2024  10:00:13  PAGE 16


      000000DDH   SFRSYM    DATA     BYTE      T4T3M
      000000C1H   SFRSYM    DATA     BYTE      WDT_CONTR
      000000DFH   SFRSYM    DATA     BYTE      IP3
      000000F4H   SFRSYM    DATA     BYTE      USBCON
      000000B5H   SFRSYM    DATA     BYTE      IP2
      000000FFH   SFRSYM    DATA     BYTE      RSTCFG
      000000C7H   SFRSYM    DATA     BYTE      IAP_CONTR
      000000F9H   SFRSYM    DATA     BYTE      LINICR
      0000008EH   SFRSYM    DATA     BYTE      AUXR
      000000AFH   SFRSYM    DATA     BYTE      IE2
      00000088H   SFRSYM    DATA     BYTE      TCON
      00000089H   SFRSYM    DATA     BYTE      TMOD
      00000098H   SFRSYM    DATA     BYTE      SCON
      000000F1H   SFRSYM    DATA     BYTE      CANICR
      00000087H   SFRSYM    DATA     BYTE      PCON
      000000BCH   SFRSYM    DATA     BYTE      ADC_CONTR
      000000E7H   SFRSYM    DATA     BYTE      CMPCR2
      000000E6H   SFRSYM    DATA     BYTE      CMPCR1
      000000DEH   SFRSYM    DATA     BYTE      ADCCFG
      000000B8H   SFRSYM    DATA     BYTE      IP
      0000008FH   SFRSYM    DATA     BYTE      INTCLKO
      000000EEH   SFRSYM    DATA     BYTE      IP3H
      000000B6H   SFRSYM    DATA     BYTE      IP2H
      000000A8H   SFRSYM    DATA     BYTE      IE
      000000BBH   SFRSYM    DATA     BYTE      P_SW3
      000000BAH   SFRSYM    DATA     BYTE      P_SW2
      000000A2H   SFRSYM    DATA     BYTE      P_SW1
      000000CEH   SFRSYM    DATA     BYTE      SPCTL
      000000F8H   SFRSYM    DATA     BYTE      P7
      000000E8H   SFRSYM    DATA     BYTE      P6
      000000C8H   SFRSYM    DATA     BYTE      P5
      000000C0H   SFRSYM    DATA     BYTE      P4
      000000B0H   SFRSYM    DATA     BYTE      P3
      000000A0H   SFRSYM    DATA     BYTE      P2
      00000090H   SFRSYM    DATA     BYTE      P1
      00000080H   SFRSYM    DATA     BYTE      P0

      ---         MODULE    ---      ---       mcp4725
      00FF0A62H   PUBLIC    CODE     ---       MCP4725_OutVol
      000000D0H   SFRSYM    DATA     BYTE      PSW
      0000009DH   SFRSYM    DATA     BYTE      IRCBAND
      00000097H   SFRSYM    DATA     BYTE      AUXR2
      000000EFH   SFRSYM    DATA     BYTE      AUXINTIF
      000000FDH   SFRSYM    DATA     BYTE      S4CON
      000000ACH   SFRSYM    DATA     BYTE      S3CON
      0000009AH   SFRSYM    DATA     BYTE      S2CON
      000000B7H   SFRSYM    DATA     BYTE      IPH
      000000CDH   SFRSYM    DATA     BYTE      SPSTAT
      000000DDH   SFRSYM    DATA     BYTE      T4T3M
      000000C1H   SFRSYM    DATA     BYTE      WDT_CONTR
      000000DFH   SFRSYM    DATA     BYTE      IP3
      000000F4H   SFRSYM    DATA     BYTE      USBCON
      000000B5H   SFRSYM    DATA     BYTE      IP2
      000000FFH   SFRSYM    DATA     BYTE      RSTCFG
      000000C7H   SFRSYM    DATA     BYTE      IAP_CONTR
      000000F9H   SFRSYM    DATA     BYTE      LINICR
      0000008EH   SFRSYM    DATA     BYTE      AUXR
      000000AFH   SFRSYM    DATA     BYTE      IE2
      00000088H   SFRSYM    DATA     BYTE      TCON
      00000089H   SFRSYM    DATA     BYTE      TMOD
      00000098H   SFRSYM    DATA     BYTE      SCON
      000000F1H   SFRSYM    DATA     BYTE      CANICR
      00000087H   SFRSYM    DATA     BYTE      PCON
      000000BCH   SFRSYM    DATA     BYTE      ADC_CONTR
      000000E7H   SFRSYM    DATA     BYTE      CMPCR2
L251 LINKER/LOCATER V4.66.93.0                                                        03/18/2024  10:00:13  PAGE 17


      000000E6H   SFRSYM    DATA     BYTE      CMPCR1
      000000DEH   SFRSYM    DATA     BYTE      ADCCFG
      000000B8H   SFRSYM    DATA     BYTE      IP
      0000008FH   SFRSYM    DATA     BYTE      INTCLKO
      000000EEH   SFRSYM    DATA     BYTE      IP3H
      000000B6H   SFRSYM    DATA     BYTE      IP2H
      000000A8H   SFRSYM    DATA     BYTE      IE
      000000BBH   SFRSYM    DATA     BYTE      P_SW3
      000000BAH   SFRSYM    DATA     BYTE      P_SW2
      000000A2H   SFRSYM    DATA     BYTE      P_SW1
      000000CEH   SFRSYM    DATA     BYTE      SPCTL
      000000F8H   SFRSYM    DATA     BYTE      P7
      000000E8H   SFRSYM    DATA     BYTE      P6
      000000C8H   SFRSYM    DATA     BYTE      P5
      000000C0H   SFRSYM    DATA     BYTE      P4
      000000B0H   SFRSYM    DATA     BYTE      P3
      000000A0H   SFRSYM    DATA     BYTE      P2
      00000090H   SFRSYM    DATA     BYTE      P1
      00000080H   SFRSYM    DATA     BYTE      P0

      ---         MODULE    ---      ---       Sensor
      00FF23E7H   PUBLIC    CODE     ---       SensorInit
      00FF0096H   PUBLIC    CODE     ---       SensorMeasureBegin
      00FF2515H   PUBLIC    CODE     ---       RefreshParam
      00FF1A5EH   PUBLIC    CODE     ---       CaptureSensorPluseCounter
      00FF23B3H   PUBLIC    CODE     ---       UseLowParam
      00FF0DDDH   PUBLIC    CODE     ---       CalcAlarmState
      000003DBH   PUBLIC    EDATA    BYTE      CPSFlag
      000003DCH   PUBLIC    EDATA    FLOAT     parama
      000003E0H   PUBLIC    EDATA    FLOAT     paramb
      000003E4H   PUBLIC    EDATA    FLOAT     paramc
      000003E8H   PUBLIC    EDATA    FLOAT     paramd
      000000D0H   SFRSYM    DATA     BYTE      PSW
      0000009DH   SFRSYM    DATA     BYTE      IRCBAND
      00000097H   SFRSYM    DATA     BYTE      AUXR2
      000000EFH   SFRSYM    DATA     BYTE      AUXINTIF
      000000FDH   SFRSYM    DATA     BYTE      S4CON
      000000ACH   SFRSYM    DATA     BYTE      S3CON
      0000009AH   SFRSYM    DATA     BYTE      S2CON
      000000B7H   SFRSYM    DATA     BYTE      IPH
      000000CDH   SFRSYM    DATA     BYTE      SPSTAT
      000000DDH   SFRSYM    DATA     BYTE      T4T3M
      000000C1H   SFRSYM    DATA     BYTE      WDT_CONTR
      000000DFH   SFRSYM    DATA     BYTE      IP3
      000000F4H   SFRSYM    DATA     BYTE      USBCON
      000000B5H   SFRSYM    DATA     BYTE      IP2
      000000FFH   SFRSYM    DATA     BYTE      RSTCFG
      000000C7H   SFRSYM    DATA     BYTE      IAP_CONTR
      000000F9H   SFRSYM    DATA     BYTE      LINICR
      0000008EH   SFRSYM    DATA     BYTE      AUXR
      000000AFH   SFRSYM    DATA     BYTE      IE2
      00000088H   SFRSYM    DATA     BYTE      TCON
      00000089H   SFRSYM    DATA     BYTE      TMOD
      00000098H   SFRSYM    DATA     BYTE      SCON
      000000F1H   SFRSYM    DATA     BYTE      CANICR
      00000087H   SFRSYM    DATA     BYTE      PCON
      000000BCH   SFRSYM    DATA     BYTE      ADC_CONTR
      000000E7H   SFRSYM    DATA     BYTE      CMPCR2
      000000E6H   SFRSYM    DATA     BYTE      CMPCR1
      000000DEH   SFRSYM    DATA     BYTE      ADCCFG
      000000B8H   SFRSYM    DATA     BYTE      IP
      0000008FH   SFRSYM    DATA     BYTE      INTCLKO
      000000EEH   SFRSYM    DATA     BYTE      IP3H
      000000B6H   SFRSYM    DATA     BYTE      IP2H
      000000A8H   SFRSYM    DATA     BYTE      IE
L251 LINKER/LOCATER V4.66.93.0                                                        03/18/2024  10:00:13  PAGE 18


      000000BBH   SFRSYM    DATA     BYTE      P_SW3
      000000BAH   SFRSYM    DATA     BYTE      P_SW2
      000000A2H   SFRSYM    DATA     BYTE      P_SW1
      000000CEH   SFRSYM    DATA     BYTE      SPCTL
      000000F8H   SFRSYM    DATA     BYTE      P7
      000000E8H   SFRSYM    DATA     BYTE      P6
      000000C8H   SFRSYM    DATA     BYTE      P5
      000000C0H   SFRSYM    DATA     BYTE      P4
      000000B0H   SFRSYM    DATA     BYTE      P3
      000000A0H   SFRSYM    DATA     BYTE      P2
      00000090H   SFRSYM    DATA     BYTE      P1
      00000080H   SFRSYM    DATA     BYTE      P0

      ---         MODULE    ---      ---       system
      00FF2665H   PUBLIC    CODE     ---       GetCounter
      00FF2557H   PUBLIC    CODE     ---       Timer0_Init
      00FF269AH   PUBLIC    CODE     ---       Timer3_Init
      00FF24F1H   PUBLIC    CODE     ---       Timer0_Isr
      00FF263BH   PUBLIC    CODE     ---       Timer3_Isr
      00FF24A4H   PUBLIC    CODE     ---       SysInit
      000004FBH   PUBLIC    EDATA    DWORD     PluseCnt
      000004FFH   PUBLIC    EDATA    BYTE      PlusePortCnt
      00000500H   PUBLIC    EDATA    WORD      Timer0Cnt
      00000502H   PUBLIC    EDATA    BYTE      LowOverFlowFlag
      000000D0H   SFRSYM    DATA     BYTE      PSW
      0000009DH   SFRSYM    DATA     BYTE      IRCBAND
      00000097H   SFRSYM    DATA     BYTE      AUXR2
      000000EFH   SFRSYM    DATA     BYTE      AUXINTIF
      000000FDH   SFRSYM    DATA     BYTE      S4CON
      000000ACH   SFRSYM    DATA     BYTE      S3CON
      0000009AH   SFRSYM    DATA     BYTE      S2CON
      000000B7H   SFRSYM    DATA     BYTE      IPH
      000000CDH   SFRSYM    DATA     BYTE      SPSTAT
      000000DDH   SFRSYM    DATA     BYTE      T4T3M
      000000C1H   SFRSYM    DATA     BYTE      WDT_CONTR
      00000088H.6 SFRSYM    DATA     BIT       TR1
      00000088H.4 SFRSYM    DATA     BIT       TR0
      000000B8H.1 SFRSYM    DATA     BIT       PT0
      000000D5H   SFRSYM    DATA     BYTE      T3L
      0000008BH   SFRSYM    DATA     BYTE      TL1
      0000008AH   SFRSYM    DATA     BYTE      TL0
      000000D4H   SFRSYM    DATA     BYTE      T3H
      0000008DH   SFRSYM    DATA     BYTE      TH1
      0000008CH   SFRSYM    DATA     BYTE      TH0
      000000DFH   SFRSYM    DATA     BYTE      IP3
      000000F4H   SFRSYM    DATA     BYTE      USBCON
      00000088H.7 SFRSYM    DATA     BIT       TF1
      000000B5H   SFRSYM    DATA     BYTE      IP2
      000000FFH   SFRSYM    DATA     BYTE      RSTCFG
      00000088H.5 SFRSYM    DATA     BIT       TF0
      000000A8H.3 SFRSYM    DATA     BIT       ET1
      000000A8H.1 SFRSYM    DATA     BIT       ET0
      000000C7H   SFRSYM    DATA     BYTE      IAP_CONTR
      000000F9H   SFRSYM    DATA     BYTE      LINICR
      0000008EH   SFRSYM    DATA     BYTE      AUXR
      000000AFH   SFRSYM    DATA     BYTE      IE2
      00000088H   SFRSYM    DATA     BYTE      TCON
      00000089H   SFRSYM    DATA     BYTE      TMOD
      00000098H   SFRSYM    DATA     BYTE      SCON
      000000F1H   SFRSYM    DATA     BYTE      CANICR
      00000087H   SFRSYM    DATA     BYTE      PCON
      000000BCH   SFRSYM    DATA     BYTE      ADC_CONTR
      000000E7H   SFRSYM    DATA     BYTE      CMPCR2
      000000E6H   SFRSYM    DATA     BYTE      CMPCR1
      000000B7H.1 SFRSYM    DATA     BIT       PT0H
L251 LINKER/LOCATER V4.66.93.0                                                        03/18/2024  10:00:13  PAGE 19


      000000DEH   SFRSYM    DATA     BYTE      ADCCFG
      000000B8H   SFRSYM    DATA     BYTE      IP
      0000008FH   SFRSYM    DATA     BYTE      INTCLKO
      000000EEH   SFRSYM    DATA     BYTE      IP3H
      000000B6H   SFRSYM    DATA     BYTE      IP2H
      000000A8H   SFRSYM    DATA     BYTE      IE
      000000BBH   SFRSYM    DATA     BYTE      P_SW3
      000000BAH   SFRSYM    DATA     BYTE      P_SW2
      000000A2H   SFRSYM    DATA     BYTE      P_SW1
      000000CEH   SFRSYM    DATA     BYTE      SPCTL
      000000F8H   SFRSYM    DATA     BYTE      P7
      000000E8H   SFRSYM    DATA     BYTE      P6
      000000C8H   SFRSYM    DATA     BYTE      P5
      000000C0H   SFRSYM    DATA     BYTE      P4
      000000B0H   SFRSYM    DATA     BYTE      P3
      000000A0H   SFRSYM    DATA     BYTE      P2
      00000090H   SFRSYM    DATA     BYTE      P1
      00000080H   SFRSYM    DATA     BYTE      P0

      ---         MODULE    ---      ---       uart
      00FF2124H   PUBLIC    CODE     ---       UART1_ISR
      00FF22C9H   PUBLIC    CODE     ---       Uart1_Init
      00FF21FFH   PUBLIC    CODE     ---       uart_send
      00FF2678H   PUBLIC    CODE     ---       ClearRs485Buf
      00000020H.0 PUBLIC    BIT      BIT       B_TX1_Busy
      00000141H   PUBLIC    EDATA    ---       RX1_Buffer
      00000209H   PUBLIC    EDATA    WORD      Rx1_Timer
      0000020BH   PUBLIC    EDATA    BYTE      RX1_Cnt
      0000020CH   PUBLIC    EDATA    BYTE      TX1_Cnt
      000000D0H   SFRSYM    DATA     BYTE      PSW
      0000009DH   SFRSYM    DATA     BYTE      IRCBAND
      00000097H   SFRSYM    DATA     BYTE      AUXR2
      000000B7H.4 SFRSYM    DATA     BIT       PSH
      000000EFH   SFRSYM    DATA     BYTE      AUXINTIF
      000000FDH   SFRSYM    DATA     BYTE      S4CON
      000000ACH   SFRSYM    DATA     BYTE      S3CON
      0000009AH   SFRSYM    DATA     BYTE      S2CON
      000000B7H   SFRSYM    DATA     BYTE      IPH
      000000CDH   SFRSYM    DATA     BYTE      SPSTAT
      000000DDH   SFRSYM    DATA     BYTE      T4T3M
      000000C1H   SFRSYM    DATA     BYTE      WDT_CONTR
      00000088H.6 SFRSYM    DATA     BIT       TR1
      0000008BH   SFRSYM    DATA     BYTE      TL1
      0000008DH   SFRSYM    DATA     BYTE      TH1
      000000DFH   SFRSYM    DATA     BYTE      IP3
      000000F4H   SFRSYM    DATA     BYTE      USBCON
      000000B5H   SFRSYM    DATA     BYTE      IP2
      000000FFH   SFRSYM    DATA     BYTE      RSTCFG
      000000A8H.3 SFRSYM    DATA     BIT       ET1
      000000C7H   SFRSYM    DATA     BYTE      IAP_CONTR
      000000F9H   SFRSYM    DATA     BYTE      LINICR
      0000008EH   SFRSYM    DATA     BYTE      AUXR
      000000AFH   SFRSYM    DATA     BYTE      IE2
      00000088H   SFRSYM    DATA     BYTE      TCON
      00000089H   SFRSYM    DATA     BYTE      TMOD
      00000098H   SFRSYM    DATA     BYTE      SCON
      000000F1H   SFRSYM    DATA     BYTE      CANICR
      00000087H   SFRSYM    DATA     BYTE      PCON
      00000099H   SFRSYM    DATA     BYTE      SBUF
      000000BCH   SFRSYM    DATA     BYTE      ADC_CONTR
      000000E7H   SFRSYM    DATA     BYTE      CMPCR2
      000000E6H   SFRSYM    DATA     BYTE      CMPCR1
      000000B8H.4 SFRSYM    DATA     BIT       PS
      00000098H.1 SFRSYM    DATA     BIT       TI
      00000098H.0 SFRSYM    DATA     BIT       RI
L251 LINKER/LOCATER V4.66.93.0                                                        03/18/2024  10:00:13  PAGE 20


      000000DEH   SFRSYM    DATA     BYTE      ADCCFG
      000000B8H   SFRSYM    DATA     BYTE      IP
      000000A8H.4 SFRSYM    DATA     BIT       ES
      0000008FH   SFRSYM    DATA     BYTE      INTCLKO
      000000EEH   SFRSYM    DATA     BYTE      IP3H
      000000B6H   SFRSYM    DATA     BYTE      IP2H
      000000A8H   SFRSYM    DATA     BYTE      IE
      000000BBH   SFRSYM    DATA     BYTE      P_SW3
      000000BAH   SFRSYM    DATA     BYTE      P_SW2
      000000A2H   SFRSYM    DATA     BYTE      P_SW1
      000000CEH   SFRSYM    DATA     BYTE      SPCTL
      000000F8H   SFRSYM    DATA     BYTE      P7
      000000E8H   SFRSYM    DATA     BYTE      P6
      000000C8H   SFRSYM    DATA     BYTE      P5
      000000C0H   SFRSYM    DATA     BYTE      P4
      000000B0H   SFRSYM    DATA     BYTE      P3
      000000A0H   SFRSYM    DATA     BYTE      P2
      00000090H   SFRSYM    DATA     BYTE      P1
      00000080H   SFRSYM    DATA     BYTE      P0

      ---         MODULE    ---      ---       main
      00FF2536H   PUBLIC    CODE     ---       Rs485Hnd
      00FF1825H   PUBLIC    CODE     ---       InitParam
      00FF260EH   PUBLIC    CODE     ---       Error
      00FF18F8H   PUBLIC    CODE     ---       TimerTask
      00FF1D86H   PUBLIC    CODE     ---       main
      00FF237AH   PUBLIC    CODE     ---       IoInit
      00FF21B8H   PUBLIC    CODE     ---       delay_ms
      00FF25C5H   PUBLIC    CODE     ---       delay_us
      0000020DH   PUBLIC    EDATA    ---       SysRunState
      00000094H   SFRSYM    DATA     BYTE      P0M0
      000000D0H   SFRSYM    DATA     BYTE      PSW
      000000BAH.7 SFRSYM    DATA     BIT       EAXFR
      0000009DH   SFRSYM    DATA     BYTE      IRCBAND
      00000097H   SFRSYM    DATA     BYTE      AUXR2
      000000EFH   SFRSYM    DATA     BYTE      AUXINTIF
      000000FDH   SFRSYM    DATA     BYTE      S4CON
      000000ACH   SFRSYM    DATA     BYTE      S3CON
      0000009AH   SFRSYM    DATA     BYTE      S2CON
      000000B7H   SFRSYM    DATA     BYTE      IPH
      000000CDH   SFRSYM    DATA     BYTE      SPSTAT
      000000DDH   SFRSYM    DATA     BYTE      T4T3M
      000000DDH.3 SFRSYM    DATA     BIT       T3R
      000000C1H   SFRSYM    DATA     BYTE      WDT_CONTR
      000000D5H   SFRSYM    DATA     BYTE      T3L
      000000E9H   SFRSYM    DATA     BYTE      WTST
      000000D4H   SFRSYM    DATA     BYTE      T3H
      000000DFH   SFRSYM    DATA     BYTE      IP3
      000000F4H   SFRSYM    DATA     BYTE      USBCON
      000000B5H   SFRSYM    DATA     BYTE      IP2
      000000FFH   SFRSYM    DATA     BYTE      RSTCFG
      000000C7H   SFRSYM    DATA     BYTE      IAP_CONTR
      000000F9H   SFRSYM    DATA     BYTE      LINICR
      0000008EH   SFRSYM    DATA     BYTE      AUXR
      000000AFH   SFRSYM    DATA     BYTE      IE2
      00000088H   SFRSYM    DATA     BYTE      TCON
      00000089H   SFRSYM    DATA     BYTE      TMOD
      00000098H   SFRSYM    DATA     BYTE      SCON
      000000F1H   SFRSYM    DATA     BYTE      CANICR
      00000087H   SFRSYM    DATA     BYTE      PCON
      000000BCH   SFRSYM    DATA     BYTE      ADC_CONTR
      000000E7H   SFRSYM    DATA     BYTE      CMPCR2
      000000E6H   SFRSYM    DATA     BYTE      CMPCR1
      000000DEH   SFRSYM    DATA     BYTE      ADCCFG
      000000B8H   SFRSYM    DATA     BYTE      IP
L251 LINKER/LOCATER V4.66.93.0                                                        03/18/2024  10:00:13  PAGE 21


      0000008FH   SFRSYM    DATA     BYTE      INTCLKO
      000000EEH   SFRSYM    DATA     BYTE      IP3H
      000000B6H   SFRSYM    DATA     BYTE      IP2H
      000000A8H   SFRSYM    DATA     BYTE      IE
      000000BBH   SFRSYM    DATA     BYTE      P_SW3
      000000BAH   SFRSYM    DATA     BYTE      P_SW2
      000000A2H   SFRSYM    DATA     BYTE      P_SW1
      000000CEH   SFRSYM    DATA     BYTE      SPCTL
      000000F8H   SFRSYM    DATA     BYTE      P7
      000000A8H.7 SFRSYM    DATA     BIT       EA
      000000E1H   SFRSYM    DATA     BYTE      P7M1
      000000E8H   SFRSYM    DATA     BYTE      P6
      000000C8H   SFRSYM    DATA     BYTE      P5
      000000CBH   SFRSYM    DATA     BYTE      P6M1
      000000E2H   SFRSYM    DATA     BYTE      P7M0
      000000C0H   SFRSYM    DATA     BYTE      P4
      000000C9H   SFRSYM    DATA     BYTE      P5M1
      000000CCH   SFRSYM    DATA     BYTE      P6M0
      000000B0H   SFRSYM    DATA     BYTE      P3
      000000B3H   SFRSYM    DATA     BYTE      P4M1
      000000CAH   SFRSYM    DATA     BYTE      P5M0
      000000A0H   SFRSYM    DATA     BYTE      P2
      000000B1H   SFRSYM    DATA     BYTE      P3M1
      000000B4H   SFRSYM    DATA     BYTE      P4M0
      00000090H   SFRSYM    DATA     BYTE      P1
      00000095H   SFRSYM    DATA     BYTE      P2M1
      000000B2H   SFRSYM    DATA     BYTE      P3M0
      00000080H   SFRSYM    DATA     BYTE      P0
      00000091H   SFRSYM    DATA     BYTE      P1M1
      00000096H   SFRSYM    DATA     BYTE      P2M0
      00000092H   SFRSYM    DATA     BYTE      P1M0
      00000093H   SFRSYM    DATA     BYTE      P0M1

      ---         MODULE    ---      ---       ?C?FPADD
      00FF00A4H   PUBLIC    CODE     ---       ?C?FPADD
      00FF00A1H   PUBLIC    CODE     ---       ?C?FPSUB

      ---         MODULE    ---      ---       ?C?FPMUL
      00FF015CH   PUBLIC    CODE     ---       ?C?FPMUL

      ---         MODULE    ---      ---       ?C?FPDIV
      00FF01FCH   PUBLIC    CODE     ---       ?C?FPDIV

      ---         MODULE    ---      ---       ?C?FPCMP
      00FF027FH   PUBLIC    CODE     ---       ?C?FPCMP
      00FF027DH   PUBLIC    CODE     ---       ?C?FPCMP3

      ---         MODULE    ---      ---       ?C?FCAST
      00FF02CDH   PUBLIC    CODE     NEAR LAB  ?C?FCASTC
      00FF02C8H   PUBLIC    CODE     NEAR LAB  ?C?FCASTI
      00FF02C3H   PUBLIC    CODE     NEAR LAB  ?C?FCASTL

      ---         MODULE    ---      ---       ?C?CASTF
      00FF0300H   PUBLIC    CODE     NEAR LAB  ?C?CASTF

      ---         MODULE    ---      ---       SPRINTF
      000003CFH   PUBLIC    EDATA    ---       ?SPRINTF?BYTE
      00FF033DH   PUBLIC    CODE     NEAR LAB  SPRINTF

      ---         MODULE    ---      ---       SQRT?_
      00FF035DH   PUBLIC    CODE     ---       SQRT?_

      ---         MODULE    ---      ---       ?C?FPGETOPN
      00FF03EDH   PUBLIC    CODE     ---       ?C?FPGETOPN2
      00FF042AH   PUBLIC    CODE     ---       ?C?FPNANRESULT
L251 LINKER/LOCATER V4.66.93.0                                                        03/18/2024  10:00:13  PAGE 22


      00FF0432H   PUBLIC    CODE     ---       ?C?FPOVERFLOW
      00FF0406H   PUBLIC    CODE     ---       ?C?FPRESULT
      00FF041CH   PUBLIC    CODE     ---       ?C?FPRESULT2
      00FF042FH   PUBLIC    CODE     ---       ?C?FPUNDERFLOW

      ---         MODULE    ---      ---       ?C?PRNFMT
      00FF046BH   PUBLIC    CODE     ---       ?C?PRNFMT

      ---         MODULE    ---      ---       ?C?FPCONVERT
      00FF0888H   PUBLIC    CODE     ---       ?C?FPCONVERT
      00FF0940H   PUBLIC    CODE     ---       ?C?FPROUND

      ---         MODULE    ---      ---       ?C?FTNPWR
      00FF09B3H   PUBLIC    CODE     ---       ?C?FTNPWR

      ---         MODULE    ---      ---       ?C_START
      00FF0000H   PUBLIC    CODE     ---       ?C?STARTUP
      00FF0000H   PUBLIC    CODE     ---       ?C_STARTUP

      ---         MODULE    ---      ---       ?C?INITEDATA
      00FF229DH   PUBLIC    CODE     ---       ?C?INITEDATA

      ---         MODULE    ---      ---       ?C?ULDIV
      00FF09ECH   PUBLIC    CODE     NEAR LAB  ?C?ULDIV
      00FF09EAH   PUBLIC    CODE     NEAR LAB  ?C?ULIDIV

      ---         MODULE    ---      ---       ?C?BMOVENP
      00FF0A3FH   PUBLIC    CODE     ---       ?C?BMOVENP
      00FF0A3DH   PUBLIC    CODE     ---       ?C?BMOVENP8

      ---         MODULE    ---      ---       ATOI
      00FF1C8BH   PUBLIC    CODE     ---       atoi?_

      ---         MODULE    ---      ---       memcmp
      00FF2448H   PUBLIC    CODE     ---       memcmp?_

      ---         MODULE    ---      ---       memcpy
      00FF24CCH   PUBLIC    CODE     ---       memcpy?_

      ---         MODULE    ---      ---       memset
      00FF2592H   PUBLIC    CODE     ---       memset?_

      ---         MODULE    ---      ---       ?C?INITEDATA_END
      00FF281AH   PUBLIC    HCONST   WORD      ?C?INITEDATA_END

      ---         MODULE    ---      ---       ISDIGIT
      00FF268AH   PUBLIC    CODE     ---       isdigit?_

      ---         MODULE    ---      ---       ISSPACE
      00FF2651H   PUBLIC    CODE     ---       isspace?_

Program Size: data=8.1 edata+hdata=1609 xdata=0 const=358 code=9939
L251 RUN COMPLETE.  0 WARNING(S),  0 ERROR(S)
